

Microchip MPLAB XC8 Assembler V2.45 build 20230818022343 
                                                                                               Wed Jan 10 20:04:19 2024

Microchip MPLAB XC8 C Compiler v2.45 (Free license) build 20230818022343 Og9 
     1                           	processor	16F1824
     2                           	pagewidth 120
     3                           	opt	flic
     4                           	psect	idataBANK0,global,class=CODE,delta=2,noexec
     5                           	psect	stringtext1,global,class=STRCODE,delta=2,noexec
     6                           	psect	stringtext2,global,class=STRCODE,delta=2,noexec
     7                           	psect	stringtext3,global,class=STRCODE,delta=2,noexec
     8                           	psect	stringtext4,global,class=STRCODE,delta=2,noexec
     9                           	psect	stringtext5,global,class=STRCODE,delta=2,noexec
    10                           	psect	stringtext6,global,class=STRCODE,delta=2,noexec
    11                           	psect	stringtext7,global,class=STRCODE,delta=2,noexec
    12                           	psect	stringtext8,global,class=STRCODE,delta=2,noexec
    13                           	psect	stringtext9,global,class=STRCODE,delta=2,noexec
    14                           	psect	stringtext10,global,class=STRCODE,delta=2,noexec
    15                           	psect	stringtext11,global,class=STRCODE,delta=2,noexec
    16                           	psect	stringtext12,global,class=STRCODE,delta=2,noexec
    17                           	psect	cinit,global,class=CODE,merge=1,delta=2
    18                           	psect	bssCOMMON,global,class=COMMON,space=1,delta=1,noexec
    19                           	psect	bssBANK0,global,class=BANK0,space=1,delta=1,noexec
    20                           	psect	dataBANK0,global,class=BANK0,space=1,delta=1,noexec
    21                           	psect	clrtext,global,class=CODE,delta=2
    22                           	psect	cstackCOMMON,global,class=COMMON,space=1,delta=1,noexec
    23                           	psect	cstackBANK0,global,class=BANK0,space=1,delta=1,noexec
    24                           	psect	maintext,global,class=CODE,merge=1,split=1,delta=2
    25                           	psect	text1,local,class=CODE,merge=1,delta=2
    26                           	psect	text2,local,class=CODE,merge=1,delta=2
    27                           	psect	text3,local,class=CODE,merge=1,delta=2
    28                           	psect	text4,local,class=CODE,merge=1,delta=2,group=1
    29                           	psect	text5,local,class=CODE,merge=1,delta=2
    30                           	psect	text6,local,class=CODE,merge=1,delta=2
    31                           	psect	text7,local,class=CODE,merge=1,delta=2
    32                           	psect	text8,local,class=CODE,merge=1,delta=2
    33                           	psect	text9,local,class=CODE,merge=1,delta=2
    34                           	psect	text10,local,class=CODE,merge=1,delta=2
    35                           	psect	text11,local,class=CODE,merge=1,delta=2
    36                           	psect	text12,local,class=CODE,merge=1,delta=2
    37                           	psect	text13,local,class=CODE,merge=1,delta=2
    38                           	psect	intentry,global,class=CODE,delta=2
    39                           	psect	text15,local,class=CODE,merge=1,delta=2
    40                           	psect	config,global,abs,ovrld,class=CONFIG,space=4,delta=2,noexec
    41                           	dabs	1,0x7E,2
    42     0000                     
    43                           ; Generated 06/07/2023 GMT
    44                           ; 
    45                           ; Copyright © 2023, Microchip Technology Inc. and its subsidiaries ("Microchip")
    46                           ; All rights reserved.
    47                           ; 
    48                           ; This software is developed by Microchip Technology Inc. and its subsidiaries ("Microch
      +                          ip").
    49                           ; 
    50                           ; Redistribution and use in source and binary forms, with or without modification, are
    51                           ; permitted provided that the following conditions are met:
    52                           ; 
    53                           ;     1. Redistributions of source code must retain the above copyright notice, this lis
      +                          t of
    54                           ;        conditions and the following disclaimer.
    55                           ; 
    56                           ;     2. Redistributions in binary form must reproduce the above copyright notice, this 
      +                          list
    57                           ;        of conditions and the following disclaimer in the documentation and/or other
    58                           ;        materials provided with the distribution. Publication is not required when
    59                           ;        this file is used in an embedded application.
    60                           ; 
    61                           ;     3. Microchip's name may not be used to endorse or promote products derived from th
      +                          is
    62                           ;        software without specific prior written permission.
    63                           ; 
    64                           ; THIS SOFTWARE IS PROVIDED BY MICROCHIP "AS IS" AND ANY EXPRESS OR IMPLIED WARRANTIES,
    65                           ; INCLUDING, BUT NOT LIMITED TO, THE IMPLIED WARRANTIES OF MERCHANTABILITY AND FITNESS F
      +                          OR
    66                           ; PURPOSE ARE DISCLAIMED.  IN NO EVENT SHALL MICROCHIP BE LIABLE FOR ANY DIRECT, INDIREC
      +                          T,
    67                           ; INCIDENTAL, SPECIAL, EXEMPLARY, OR CONSEQUENTIAL DAMAGES (INCLUDING BUT NOT LIMITED TO
    68                           ; PROCUREMENT OF SUBSTITUTE GOODS OR SERVICES; LOSS OF USE, DATA OR PROFITS; OR BUSINESS
    69                           ; INTERRUPTION) HOWSOEVER CAUSED AND ON ANY THEORY OF LIABILITY, WHETHER IN CONTRACT, ST
      +                          RICT
    70                           ; LIABILITY, OR TORT (INCLUDING NEGLIGENCE OR OTHERWISE) ARISING IN ANY WAY OUT OF THE U
      +                          SE OF
    71                           ; THIS SOFTWARE, EVEN IF ADVISED OF THE POSSIBILITY OF SUCH DAMAGE.
    72                           ; 
    73                           ; 
    74                           ; Code-generator required, PIC16F1824 Definitions
    75                           ; 
    76                           ; SFR Addresses
    77     0000                     	;# 
    78     0001                     	;# 
    79     0002                     	;# 
    80     0003                     	;# 
    81     0004                     	;# 
    82     0005                     	;# 
    83     0006                     	;# 
    84     0007                     	;# 
    85     0008                     	;# 
    86     0009                     	;# 
    87     000A                     	;# 
    88     000B                     	;# 
    89     000C                     	;# 
    90     000E                     	;# 
    91     0011                     	;# 
    92     0012                     	;# 
    93     0013                     	;# 
    94     0015                     	;# 
    95     0016                     	;# 
    96     0016                     	;# 
    97     0017                     	;# 
    98     0018                     	;# 
    99     0019                     	;# 
   100     001A                     	;# 
   101     001B                     	;# 
   102     001C                     	;# 
   103     001E                     	;# 
   104     001F                     	;# 
   105     008C                     	;# 
   106     008E                     	;# 
   107     0091                     	;# 
   108     0092                     	;# 
   109     0093                     	;# 
   110     0095                     	;# 
   111     0096                     	;# 
   112     0097                     	;# 
   113     0098                     	;# 
   114     0099                     	;# 
   115     009A                     	;# 
   116     009B                     	;# 
   117     009B                     	;# 
   118     009C                     	;# 
   119     009D                     	;# 
   120     009E                     	;# 
   121     010C                     	;# 
   122     010E                     	;# 
   123     0111                     	;# 
   124     0112                     	;# 
   125     0113                     	;# 
   126     0114                     	;# 
   127     0115                     	;# 
   128     0116                     	;# 
   129     0117                     	;# 
   130     0118                     	;# 
   131     0119                     	;# 
   132     011A                     	;# 
   133     011B                     	;# 
   134     011D                     	;# 
   135     011E                     	;# 
   136     018C                     	;# 
   137     018E                     	;# 
   138     0191                     	;# 
   139     0191                     	;# 
   140     0192                     	;# 
   141     0193                     	;# 
   142     0193                     	;# 
   143     0193                     	;# 
   144     0194                     	;# 
   145     0195                     	;# 
   146     0196                     	;# 
   147     0199                     	;# 
   148     019A                     	;# 
   149     019B                     	;# 
   150     019B                     	;# 
   151     019B                     	;# 
   152     019B                     	;# 
   153     019C                     	;# 
   154     019C                     	;# 
   155     019D                     	;# 
   156     019E                     	;# 
   157     019F                     	;# 
   158     020C                     	;# 
   159     020E                     	;# 
   160     0211                     	;# 
   161     0211                     	;# 
   162     0212                     	;# 
   163     0212                     	;# 
   164     0213                     	;# 
   165     0213                     	;# 
   166     0214                     	;# 
   167     0214                     	;# 
   168     0215                     	;# 
   169     0215                     	;# 
   170     0215                     	;# 
   171     0215                     	;# 
   172     0216                     	;# 
   173     0216                     	;# 
   174     0217                     	;# 
   175     0217                     	;# 
   176     0291                     	;# 
   177     0291                     	;# 
   178     0292                     	;# 
   179     0293                     	;# 
   180     0294                     	;# 
   181     0295                     	;# 
   182     0295                     	;# 
   183     0296                     	;# 
   184     0298                     	;# 
   185     0298                     	;# 
   186     0299                     	;# 
   187     029A                     	;# 
   188     029B                     	;# 
   189     029C                     	;# 
   190     029D                     	;# 
   191     029E                     	;# 
   192     029E                     	;# 
   193     0311                     	;# 
   194     0311                     	;# 
   195     0312                     	;# 
   196     0313                     	;# 
   197     0318                     	;# 
   198     0318                     	;# 
   199     0319                     	;# 
   200     031A                     	;# 
   201     038C                     	;# 
   202     038E                     	;# 
   203     0391                     	;# 
   204     0392                     	;# 
   205     0393                     	;# 
   206     039A                     	;# 
   207     039C                     	;# 
   208     039D                     	;# 
   209     039E                     	;# 
   210     039F                     	;# 
   211     0415                     	;# 
   212     0416                     	;# 
   213     0417                     	;# 
   214     041C                     	;# 
   215     041D                     	;# 
   216     041E                     	;# 
   217     0FE4                     	;# 
   218     0FE5                     	;# 
   219     0FE6                     	;# 
   220     0FE7                     	;# 
   221     0FE8                     	;# 
   222     0FE9                     	;# 
   223     0FEA                     	;# 
   224     0FEB                     	;# 
   225     0FED                     	;# 
   226     0FEE                     	;# 
   227     0FEF                     	;# 
   228     0020                     	;# 
   229     0021                     	;# 
   230     0022                     	;# 
   231     0023                     	;# 
   232     0024                     	;# 
   233     0025                     	;# 
   234     0000                     	;# 
   235     0001                     	;# 
   236     0002                     	;# 
   237     0003                     	;# 
   238     0004                     	;# 
   239     0005                     	;# 
   240     0006                     	;# 
   241     0007                     	;# 
   242     0008                     	;# 
   243     0009                     	;# 
   244     000A                     	;# 
   245     000B                     	;# 
   246     000C                     	;# 
   247     000E                     	;# 
   248     0011                     	;# 
   249     0012                     	;# 
   250     0013                     	;# 
   251     0015                     	;# 
   252     0016                     	;# 
   253     0016                     	;# 
   254     0017                     	;# 
   255     0018                     	;# 
   256     0019                     	;# 
   257     001A                     	;# 
   258     001B                     	;# 
   259     001C                     	;# 
   260     001E                     	;# 
   261     001F                     	;# 
   262     008C                     	;# 
   263     008E                     	;# 
   264     0091                     	;# 
   265     0092                     	;# 
   266     0093                     	;# 
   267     0095                     	;# 
   268     0096                     	;# 
   269     0097                     	;# 
   270     0098                     	;# 
   271     0099                     	;# 
   272     009A                     	;# 
   273     009B                     	;# 
   274     009B                     	;# 
   275     009C                     	;# 
   276     009D                     	;# 
   277     009E                     	;# 
   278     010C                     	;# 
   279     010E                     	;# 
   280     0111                     	;# 
   281     0112                     	;# 
   282     0113                     	;# 
   283     0114                     	;# 
   284     0115                     	;# 
   285     0116                     	;# 
   286     0117                     	;# 
   287     0118                     	;# 
   288     0119                     	;# 
   289     011A                     	;# 
   290     011B                     	;# 
   291     011D                     	;# 
   292     011E                     	;# 
   293     018C                     	;# 
   294     018E                     	;# 
   295     0191                     	;# 
   296     0191                     	;# 
   297     0192                     	;# 
   298     0193                     	;# 
   299     0193                     	;# 
   300     0193                     	;# 
   301     0194                     	;# 
   302     0195                     	;# 
   303     0196                     	;# 
   304     0199                     	;# 
   305     019A                     	;# 
   306     019B                     	;# 
   307     019B                     	;# 
   308     019B                     	;# 
   309     019B                     	;# 
   310     019C                     	;# 
   311     019C                     	;# 
   312     019D                     	;# 
   313     019E                     	;# 
   314     019F                     	;# 
   315     020C                     	;# 
   316     020E                     	;# 
   317     0211                     	;# 
   318     0211                     	;# 
   319     0212                     	;# 
   320     0212                     	;# 
   321     0213                     	;# 
   322     0213                     	;# 
   323     0214                     	;# 
   324     0214                     	;# 
   325     0215                     	;# 
   326     0215                     	;# 
   327     0215                     	;# 
   328     0215                     	;# 
   329     0216                     	;# 
   330     0216                     	;# 
   331     0217                     	;# 
   332     0217                     	;# 
   333     0291                     	;# 
   334     0291                     	;# 
   335     0292                     	;# 
   336     0293                     	;# 
   337     0294                     	;# 
   338     0295                     	;# 
   339     0295                     	;# 
   340     0296                     	;# 
   341     0298                     	;# 
   342     0298                     	;# 
   343     0299                     	;# 
   344     029A                     	;# 
   345     029B                     	;# 
   346     029C                     	;# 
   347     029D                     	;# 
   348     029E                     	;# 
   349     029E                     	;# 
   350     0311                     	;# 
   351     0311                     	;# 
   352     0312                     	;# 
   353     0313                     	;# 
   354     0318                     	;# 
   355     0318                     	;# 
   356     0319                     	;# 
   357     031A                     	;# 
   358     038C                     	;# 
   359     038E                     	;# 
   360     0391                     	;# 
   361     0392                     	;# 
   362     0393                     	;# 
   363     039A                     	;# 
   364     039C                     	;# 
   365     039D                     	;# 
   366     039E                     	;# 
   367     039F                     	;# 
   368     0415                     	;# 
   369     0416                     	;# 
   370     0417                     	;# 
   371     041C                     	;# 
   372     041D                     	;# 
   373     041E                     	;# 
   374     0FE4                     	;# 
   375     0FE5                     	;# 
   376     0FE6                     	;# 
   377     0FE7                     	;# 
   378     0FE8                     	;# 
   379     0FE9                     	;# 
   380     0FEA                     	;# 
   381     0FEB                     	;# 
   382     0FED                     	;# 
   383     0FEE                     	;# 
   384     0FEF                     	;# 
   385                           
   386                           	psect	idataBANK0
   387     04AB                     __pidataBANK0:
   388                           
   389                           ;initializer for _top_two_bytes_ptr
   390     04AB  3421               	retlw	33
   391     04AC  3400               	retlw	0
   392                           
   393                           	psect	stringtext1
   394     00EB                     __pstringtext1:
   395     00EB                     _tri_table_one_quadrant:
   396     00EB  3400               	retlw	0
   397     00EC  3402               	retlw	2
   398     00ED  3404               	retlw	4
   399     00EE  3402               	retlw	2
   400     00EF  3408               	retlw	8
   401     00F0  3402               	retlw	2
   402     00F1  340C               	retlw	12
   403     00F2  3402               	retlw	2
   404     00F3  3410               	retlw	16
   405     00F4  3402               	retlw	2
   406     00F5  3414               	retlw	20
   407     00F6  3402               	retlw	2
   408     00F7  3418               	retlw	24
   409     00F8  3402               	retlw	2
   410     00F9  341C               	retlw	28
   411     00FA  3402               	retlw	2
   412     00FB  3420               	retlw	32
   413     00FC  3402               	retlw	2
   414     00FD  3424               	retlw	36
   415     00FE  3402               	retlw	2
   416     00FF  3428               	retlw	40
   417     0100  3402               	retlw	2
   418     0101  342C               	retlw	44
   419     0102  3402               	retlw	2
   420     0103  3430               	retlw	48
   421     0104  3402               	retlw	2
   422     0105  3434               	retlw	52
   423     0106  3402               	retlw	2
   424     0107  3438               	retlw	56
   425     0108  3402               	retlw	2
   426     0109  343C               	retlw	60
   427     010A  3402               	retlw	2
   428     010B  3440               	retlw	64
   429     010C  3402               	retlw	2
   430     010D  3444               	retlw	68
   431     010E  3402               	retlw	2
   432     010F  3448               	retlw	72
   433     0110  3402               	retlw	2
   434     0111  344C               	retlw	76
   435     0112  3402               	retlw	2
   436     0113  3450               	retlw	80
   437     0114  3402               	retlw	2
   438     0115  3454               	retlw	84
   439     0116  3402               	retlw	2
   440     0117  3458               	retlw	88
   441     0118  3402               	retlw	2
   442     0119  345C               	retlw	92
   443     011A  3402               	retlw	2
   444     011B  3460               	retlw	96
   445     011C  3402               	retlw	2
   446     011D  3464               	retlw	100
   447     011E  3402               	retlw	2
   448     011F  3468               	retlw	104
   449     0120  3402               	retlw	2
   450     0121  346C               	retlw	108
   451     0122  3402               	retlw	2
   452     0123  3470               	retlw	112
   453     0124  3402               	retlw	2
   454     0125  3474               	retlw	116
   455     0126  3402               	retlw	2
   456     0127  3478               	retlw	120
   457     0128  3402               	retlw	2
   458     0129  347C               	retlw	124
   459     012A  3402               	retlw	2
   460     012B  3480               	retlw	128
   461     012C  3402               	retlw	2
   462     012D  3484               	retlw	132
   463     012E  3402               	retlw	2
   464     012F  3488               	retlw	136
   465     0130  3402               	retlw	2
   466     0131  348C               	retlw	140
   467     0132  3402               	retlw	2
   468     0133  3490               	retlw	144
   469     0134  3402               	retlw	2
   470     0135  3494               	retlw	148
   471     0136  3402               	retlw	2
   472     0137  3498               	retlw	152
   473     0138  3402               	retlw	2
   474     0139  349C               	retlw	156
   475     013A  3402               	retlw	2
   476     013B  34A0               	retlw	160
   477     013C  3402               	retlw	2
   478     013D  34A4               	retlw	164
   479     013E  3402               	retlw	2
   480     013F  34A8               	retlw	168
   481     0140  3402               	retlw	2
   482     0141  34AC               	retlw	172
   483     0142  3402               	retlw	2
   484     0143  34B0               	retlw	176
   485     0144  3402               	retlw	2
   486     0145  34B4               	retlw	180
   487     0146  3402               	retlw	2
   488     0147  34B8               	retlw	184
   489     0148  3402               	retlw	2
   490     0149  34BC               	retlw	188
   491     014A  3402               	retlw	2
   492     014B  34C0               	retlw	192
   493     014C  3402               	retlw	2
   494     014D  34C4               	retlw	196
   495     014E  3402               	retlw	2
   496     014F  34C8               	retlw	200
   497     0150  3402               	retlw	2
   498     0151  34CC               	retlw	204
   499     0152  3402               	retlw	2
   500     0153  34D0               	retlw	208
   501     0154  3402               	retlw	2
   502     0155  34D4               	retlw	212
   503     0156  3402               	retlw	2
   504     0157  34D8               	retlw	216
   505     0158  3402               	retlw	2
   506     0159  34DC               	retlw	220
   507     015A  3402               	retlw	2
   508     015B  34E0               	retlw	224
   509     015C  3402               	retlw	2
   510     015D  34E4               	retlw	228
   511     015E  3402               	retlw	2
   512     015F  34E8               	retlw	232
   513     0160  3402               	retlw	2
   514     0161  34EC               	retlw	236
   515     0162  3402               	retlw	2
   516     0163  34F0               	retlw	240
   517     0164  3402               	retlw	2
   518     0165  34F4               	retlw	244
   519     0166  3402               	retlw	2
   520     0167  34F8               	retlw	248
   521     0168  3402               	retlw	2
   522     0169  34FB               	retlw	251
   523     016A  3402               	retlw	2
   524     016B  34FF               	retlw	255
   525     016C  3402               	retlw	2
   526     016D  3403               	retlw	3
   527     016E  3403               	retlw	3
   528     016F  3407               	retlw	7
   529     0170  3403               	retlw	3
   530     0171  340B               	retlw	11
   531     0172  3403               	retlw	3
   532     0173  340F               	retlw	15
   533     0174  3403               	retlw	3
   534     0175  3413               	retlw	19
   535     0176  3403               	retlw	3
   536     0177  3417               	retlw	23
   537     0178  3403               	retlw	3
   538     0179  341B               	retlw	27
   539     017A  3403               	retlw	3
   540     017B  341F               	retlw	31
   541     017C  3403               	retlw	3
   542     017D  3423               	retlw	35
   543     017E  3403               	retlw	3
   544     017F  3427               	retlw	39
   545     0180  3403               	retlw	3
   546     0181  342B               	retlw	43
   547     0182  3403               	retlw	3
   548     0183  342F               	retlw	47
   549     0184  3403               	retlw	3
   550     0185  3433               	retlw	51
   551     0186  3403               	retlw	3
   552     0187  3437               	retlw	55
   553     0188  3403               	retlw	3
   554     0189  343B               	retlw	59
   555     018A  3403               	retlw	3
   556     018B  343F               	retlw	63
   557     018C  3403               	retlw	3
   558     018D  3443               	retlw	67
   559     018E  3403               	retlw	3
   560     018F  3447               	retlw	71
   561     0190  3403               	retlw	3
   562     0191  344B               	retlw	75
   563     0192  3403               	retlw	3
   564     0193  344F               	retlw	79
   565     0194  3403               	retlw	3
   566     0195  3453               	retlw	83
   567     0196  3403               	retlw	3
   568     0197  3457               	retlw	87
   569     0198  3403               	retlw	3
   570     0199  345B               	retlw	91
   571     019A  3403               	retlw	3
   572     019B  345F               	retlw	95
   573     019C  3403               	retlw	3
   574     019D  3463               	retlw	99
   575     019E  3403               	retlw	3
   576     019F  3467               	retlw	103
   577     01A0  3403               	retlw	3
   578     01A1  346B               	retlw	107
   579     01A2  3403               	retlw	3
   580     01A3  346F               	retlw	111
   581     01A4  3403               	retlw	3
   582     01A5  3473               	retlw	115
   583     01A6  3403               	retlw	3
   584     01A7  3477               	retlw	119
   585     01A8  3403               	retlw	3
   586     01A9  347B               	retlw	123
   587     01AA  3403               	retlw	3
   588     01AB  347F               	retlw	127
   589     01AC  3403               	retlw	3
   590     01AD  3483               	retlw	131
   591     01AE  3403               	retlw	3
   592     01AF  3487               	retlw	135
   593     01B0  3403               	retlw	3
   594     01B1  348B               	retlw	139
   595     01B2  3403               	retlw	3
   596     01B3  348F               	retlw	143
   597     01B4  3403               	retlw	3
   598     01B5  3493               	retlw	147
   599     01B6  3403               	retlw	3
   600     01B7  3497               	retlw	151
   601     01B8  3403               	retlw	3
   602     01B9  349B               	retlw	155
   603     01BA  3403               	retlw	3
   604     01BB  349F               	retlw	159
   605     01BC  3403               	retlw	3
   606     01BD  34A3               	retlw	163
   607     01BE  3403               	retlw	3
   608     01BF  34A7               	retlw	167
   609     01C0  3403               	retlw	3
   610     01C1  34AB               	retlw	171
   611     01C2  3403               	retlw	3
   612     01C3  34AF               	retlw	175
   613     01C4  3403               	retlw	3
   614     01C5  34B3               	retlw	179
   615     01C6  3403               	retlw	3
   616     01C7  34B7               	retlw	183
   617     01C8  3403               	retlw	3
   618     01C9  34BB               	retlw	187
   619     01CA  3403               	retlw	3
   620     01CB  34BF               	retlw	191
   621     01CC  3403               	retlw	3
   622     01CD  34C3               	retlw	195
   623     01CE  3403               	retlw	3
   624     01CF  34C7               	retlw	199
   625     01D0  3403               	retlw	3
   626     01D1  34CB               	retlw	203
   627     01D2  3403               	retlw	3
   628     01D3  34CF               	retlw	207
   629     01D4  3403               	retlw	3
   630     01D5  34D3               	retlw	211
   631     01D6  3403               	retlw	3
   632     01D7  34D7               	retlw	215
   633     01D8  3403               	retlw	3
   634     01D9  34DB               	retlw	219
   635     01DA  3403               	retlw	3
   636     01DB  34DF               	retlw	223
   637     01DC  3403               	retlw	3
   638     01DD  34E3               	retlw	227
   639     01DE  3403               	retlw	3
   640     01DF  34E7               	retlw	231
   641     01E0  3403               	retlw	3
   642     01E1  34EB               	retlw	235
   643     01E2  3403               	retlw	3
   644     01E3  34EF               	retlw	239
   645     01E4  3403               	retlw	3
   646     01E5  34F3               	retlw	243
   647     01E6  3403               	retlw	3
   648     01E7  34F7               	retlw	247
   649     01E8  3403               	retlw	3
   650     01E9  34FB               	retlw	251
   651     01EA  3403               	retlw	3
   652     01EB  34FF               	retlw	255
   653     01EC  3403               	retlw	3
   654     01ED                     __end_of_tri_table_one_quadrant:
   655                           
   656                           	psect	stringtext2
   657     01ED                     __pstringtext2:
   658     01ED                     _sine_table_one_quadrant:
   659     01ED  3400               	retlw	0
   660     01EE  3402               	retlw	2
   661     01EF  3406               	retlw	6
   662     01F0  3402               	retlw	2
   663     01F1  340C               	retlw	12
   664     01F2  3402               	retlw	2
   665     01F3  3412               	retlw	18
   666     01F4  3402               	retlw	2
   667     01F5  3419               	retlw	25
   668     01F6  3402               	retlw	2
   669     01F7  341F               	retlw	31
   670     01F8  3402               	retlw	2
   671     01F9  3425               	retlw	37
   672     01FA  3402               	retlw	2
   673     01FB  342B               	retlw	43
   674     01FC  3402               	retlw	2
   675     01FD  3432               	retlw	50
   676     01FE  3402               	retlw	2
   677     01FF  3438               	retlw	56
   678     0200  3402               	retlw	2
   679     0201  343E               	retlw	62
   680     0202  3402               	retlw	2
   681     0203  3444               	retlw	68
   682     0204  3402               	retlw	2
   683     0205  344B               	retlw	75
   684     0206  3402               	retlw	2
   685     0207  3451               	retlw	81
   686     0208  3402               	retlw	2
   687     0209  3457               	retlw	87
   688     020A  3402               	retlw	2
   689     020B  345D               	retlw	93
   690     020C  3402               	retlw	2
   691     020D  3463               	retlw	99
   692     020E  3402               	retlw	2
   693     020F  3469               	retlw	105
   694     0210  3402               	retlw	2
   695     0211  3470               	retlw	112
   696     0212  3402               	retlw	2
   697     0213  3476               	retlw	118
   698     0214  3402               	retlw	2
   699     0215  347C               	retlw	124
   700     0216  3402               	retlw	2
   701     0217  3482               	retlw	130
   702     0218  3402               	retlw	2
   703     0219  3488               	retlw	136
   704     021A  3402               	retlw	2
   705     021B  348E               	retlw	142
   706     021C  3402               	retlw	2
   707     021D  3494               	retlw	148
   708     021E  3402               	retlw	2
   709     021F  349A               	retlw	154
   710     0220  3402               	retlw	2
   711     0221  34A0               	retlw	160
   712     0222  3402               	retlw	2
   713     0223  34A6               	retlw	166
   714     0224  3402               	retlw	2
   715     0225  34AC               	retlw	172
   716     0226  3402               	retlw	2
   717     0227  34B2               	retlw	178
   718     0228  3402               	retlw	2
   719     0229  34B8               	retlw	184
   720     022A  3402               	retlw	2
   721     022B  34BD               	retlw	189
   722     022C  3402               	retlw	2
   723     022D  34C3               	retlw	195
   724     022E  3402               	retlw	2
   725     022F  34C9               	retlw	201
   726     0230  3402               	retlw	2
   727     0231  34CF               	retlw	207
   728     0232  3402               	retlw	2
   729     0233  34D5               	retlw	213
   730     0234  3402               	retlw	2
   731     0235  34DA               	retlw	218
   732     0236  3402               	retlw	2
   733     0237  34E0               	retlw	224
   734     0238  3402               	retlw	2
   735     0239  34E5               	retlw	229
   736     023A  3402               	retlw	2
   737     023B  34EB               	retlw	235
   738     023C  3402               	retlw	2
   739     023D  34F1               	retlw	241
   740     023E  3402               	retlw	2
   741     023F  34F6               	retlw	246
   742     0240  3402               	retlw	2
   743     0241  34FC               	retlw	252
   744     0242  3402               	retlw	2
   745     0243  3401               	retlw	1
   746     0244  3403               	retlw	3
   747     0245  3406               	retlw	6
   748     0246  3403               	retlw	3
   749     0247  340C               	retlw	12
   750     0248  3403               	retlw	3
   751     0249  3411               	retlw	17
   752     024A  3403               	retlw	3
   753     024B  3416               	retlw	22
   754     024C  3403               	retlw	3
   755     024D  341C               	retlw	28
   756     024E  3403               	retlw	3
   757     024F  3421               	retlw	33
   758     0250  3403               	retlw	3
   759     0251  3426               	retlw	38
   760     0252  3403               	retlw	3
   761     0253  342B               	retlw	43
   762     0254  3403               	retlw	3
   763     0255  3430               	retlw	48
   764     0256  3403               	retlw	3
   765     0257  3435               	retlw	53
   766     0258  3403               	retlw	3
   767     0259  343A               	retlw	58
   768     025A  3403               	retlw	3
   769     025B  343F               	retlw	63
   770     025C  3403               	retlw	3
   771     025D  3444               	retlw	68
   772     025E  3403               	retlw	3
   773     025F  3449               	retlw	73
   774     0260  3403               	retlw	3
   775     0261  344E               	retlw	78
   776     0262  3403               	retlw	3
   777     0263  3452               	retlw	82
   778     0264  3403               	retlw	3
   779     0265  3457               	retlw	87
   780     0266  3403               	retlw	3
   781     0267  345C               	retlw	92
   782     0268  3403               	retlw	3
   783     0269  3460               	retlw	96
   784     026A  3403               	retlw	3
   785     026B  3465               	retlw	101
   786     026C  3403               	retlw	3
   787     026D  3469               	retlw	105
   788     026E  3403               	retlw	3
   789     026F  346E               	retlw	110
   790     0270  3403               	retlw	3
   791     0271  3472               	retlw	114
   792     0272  3403               	retlw	3
   793     0273  3476               	retlw	118
   794     0274  3403               	retlw	3
   795     0275  347A               	retlw	122
   796     0276  3403               	retlw	3
   797     0277  347F               	retlw	127
   798     0278  3403               	retlw	3
   799     0279  3483               	retlw	131
   800     027A  3403               	retlw	3
   801     027B  3487               	retlw	135
   802     027C  3403               	retlw	3
   803     027D  348B               	retlw	139
   804     027E  3403               	retlw	3
   805     027F  348F               	retlw	143
   806     0280  3403               	retlw	3
   807     0281  3493               	retlw	147
   808     0282  3403               	retlw	3
   809     0283  3497               	retlw	151
   810     0284  3403               	retlw	3
   811     0285  349A               	retlw	154
   812     0286  3403               	retlw	3
   813     0287  349E               	retlw	158
   814     0288  3403               	retlw	3
   815     0289  34A2               	retlw	162
   816     028A  3403               	retlw	3
   817     028B  34A5               	retlw	165
   818     028C  3403               	retlw	3
   819     028D  34A9               	retlw	169
   820     028E  3403               	retlw	3
   821     028F  34AC               	retlw	172
   822     0290  3403               	retlw	3
   823     0291  34B0               	retlw	176
   824     0292  3403               	retlw	3
   825     0293  34B3               	retlw	179
   826     0294  3403               	retlw	3
   827     0295  34B6               	retlw	182
   828     0296  3403               	retlw	3
   829     0297  34B9               	retlw	185
   830     0298  3403               	retlw	3
   831     0299  34BD               	retlw	189
   832     029A  3403               	retlw	3
   833     029B  34C0               	retlw	192
   834     029C  3403               	retlw	3
   835     029D  34C3               	retlw	195
   836     029E  3403               	retlw	3
   837     029F  34C6               	retlw	198
   838     02A0  3403               	retlw	3
   839     02A1  34C8               	retlw	200
   840     02A2  3403               	retlw	3
   841     02A3  34CB               	retlw	203
   842     02A4  3403               	retlw	3
   843     02A5  34CE               	retlw	206
   844     02A6  3403               	retlw	3
   845     02A7  34D1               	retlw	209
   846     02A8  3403               	retlw	3
   847     02A9  34D3               	retlw	211
   848     02AA  3403               	retlw	3
   849     02AB  34D6               	retlw	214
   850     02AC  3403               	retlw	3
   851     02AD  34D8               	retlw	216
   852     02AE  3403               	retlw	3
   853     02AF  34DA               	retlw	218
   854     02B0  3403               	retlw	3
   855     02B1  34DD               	retlw	221
   856     02B2  3403               	retlw	3
   857     02B3  34DF               	retlw	223
   858     02B4  3403               	retlw	3
   859     02B5  34E1               	retlw	225
   860     02B6  3403               	retlw	3
   861     02B7  34E3               	retlw	227
   862     02B8  3403               	retlw	3
   863     02B9  34E5               	retlw	229
   864     02BA  3403               	retlw	3
   865     02BB  34E7               	retlw	231
   866     02BC  3403               	retlw	3
   867     02BD  34E9               	retlw	233
   868     02BE  3403               	retlw	3
   869     02BF  34EB               	retlw	235
   870     02C0  3403               	retlw	3
   871     02C1  34EC               	retlw	236
   872     02C2  3403               	retlw	3
   873     02C3  34EE               	retlw	238
   874     02C4  3403               	retlw	3
   875     02C5  34F0               	retlw	240
   876     02C6  3403               	retlw	3
   877     02C7  34F1               	retlw	241
   878     02C8  3403               	retlw	3
   879     02C9  34F3               	retlw	243
   880     02CA  3403               	retlw	3
   881     02CB  34F4               	retlw	244
   882     02CC  3403               	retlw	3
   883     02CD  34F5               	retlw	245
   884     02CE  3403               	retlw	3
   885     02CF  34F6               	retlw	246
   886     02D0  3403               	retlw	3
   887     02D1  34F7               	retlw	247
   888     02D2  3403               	retlw	3
   889     02D3  34F9               	retlw	249
   890     02D4  3403               	retlw	3
   891     02D5  34F9               	retlw	249
   892     02D6  3403               	retlw	3
   893     02D7  34FA               	retlw	250
   894     02D8  3403               	retlw	3
   895     02D9  34FB               	retlw	251
   896     02DA  3403               	retlw	3
   897     02DB  34FC               	retlw	252
   898     02DC  3403               	retlw	3
   899     02DD  34FD               	retlw	253
   900     02DE  3403               	retlw	3
   901     02DF  34FD               	retlw	253
   902     02E0  3403               	retlw	3
   903     02E1  34FE               	retlw	254
   904     02E2  3403               	retlw	3
   905     02E3  34FE               	retlw	254
   906     02E4  3403               	retlw	3
   907     02E5  34FE               	retlw	254
   908     02E6  3403               	retlw	3
   909     02E7  34FF               	retlw	255
   910     02E8  3403               	retlw	3
   911     02E9  34FF               	retlw	255
   912     02EA  3403               	retlw	3
   913     02EB  34FF               	retlw	255
   914     02EC  3403               	retlw	3
   915     02ED  34FF               	retlw	255
   916     02EE  3403               	retlw	3
   917     02EF                     __end_of_sine_table_one_quadrant:
   918                           
   919                           	psect	stringtext3
   920     0484                     __pstringtext3:
   921     0484                     _prescaler_bits:
   922     0484  3407               	retlw	7
   923     0485  3406               	retlw	6
   924     0486  3405               	retlw	5
   925     0487  3404               	retlw	4
   926     0488  3403               	retlw	3
   927     0489  3402               	retlw	2
   928     048A  3401               	retlw	1
   929     048B  3400               	retlw	0
   930     048C                     __end_of_prescaler_bits:
   931                           
   932                           	psect	stringtext4
   933     04AF                     __pstringtext4:
   934     04AF                     _MULTIPLY_BY_TWO:
   935     04AF  3402               	retlw	2
   936     04B0                     __end_of_MULTIPLY_BY_TWO:
   937                           
   938                           	psect	stringtext5
   939     04B0                     __pstringtext5:
   940     04B0                     _DIVIDE_BY_TWO:
   941     04B0  3401               	retlw	1
   942     04B1                     __end_of_DIVIDE_BY_TWO:
   943                           
   944                           	psect	stringtext6
   945     04B1                     __pstringtext6:
   946     04B1                     _DO_NOTHING:
   947     04B1  3400               	retlw	0
   948     04B2                     __end_of_DO_NOTHING:
   949                           
   950                           	psect	stringtext7
   951     04B2                     __pstringtext7:
   952     04B2                     _NEGATIVE:
   953     04B2  3400               	retlw	0
   954     04B3                     __end_of_NEGATIVE:
   955                           
   956                           	psect	stringtext8
   957     04B3                     __pstringtext8:
   958     04B3                     _POSITIVE:
   959     04B3  3401               	retlw	1
   960     04B4                     __end_of_POSITIVE:
   961                           
   962                           	psect	stringtext9
   963     04B4                     __pstringtext9:
   964     04B4                     _symmetry_adc_config_value:
   965     04B4  3407               	retlw	7
   966     04B5                     __end_of_symmetry_adc_config_value:
   967                           
   968                           	psect	stringtext10
   969     04B5                     __pstringtext10:
   970     04B5                     _depth_adc_config_value:
   971     04B5  3406               	retlw	6
   972     04B6                     __end_of_depth_adc_config_value:
   973                           
   974                           	psect	stringtext11
   975     04B6                     __pstringtext11:
   976     04B6                     _speed_adc_config_value:
   977     04B6  3405               	retlw	5
   978     04B7                     __end_of_speed_adc_config_value:
   979                           
   980                           	psect	stringtext12
   981     04B7                     __pstringtext12:
   982     04B7                     _waveshape_adc_config_value:
   983     04B7  3404               	retlw	4
   984     04B8                     __end_of_waveshape_adc_config_value:
   985     0015                     _TMR0	set	21
   986     001C                     _T2CON	set	28
   987     001B                     _PR2	set	27
   988     005F                     _GIE	set	95
   989     005A                     _TMR0IF	set	90
   990     005D                     _TMR0IE	set	93
   991     00E2                     _TMR2ON	set	226
   992     0089                     _TMR2IF	set	137
   993     009B                     _ADRESL	set	155
   994     009C                     _ADRESH	set	156
   995     009D                     _ADCON0	set	157
   996     009E                     _ADCON1	set	158
   997     008E                     _TRISC	set	142
   998     0098                     _OSCTUNE	set	152
   999     0099                     _OSCCON	set	153
  1000     0462                     _TRISA2	set	1122
  1001     04E9                     _GO_nDONE	set	1257
  1002     04E8                     _ADON	set	1256
  1003     0875                     _LATC5	set	2165
  1004     088F                     _C1ON	set	2191
  1005     08D7                     _SRLEN	set	2263
  1006     018E                     _ANSELC	set	398
  1007     020E                     _WPUC	set	526
  1008     029E                     _CCPTMRS0	set	670
  1009     0313                     _CCP3CON	set	787
  1010     0311                     _CCPR3L	set	785
  1011                           
  1012                           	psect	cinit
  1013     00D2                     start_initialization:	
  1014                           ; #config settings
  1015                           
  1016     00D2                     __initialization:
  1017                           
  1018                           ; Initialize objects allocated to BANK0
  1019     00D2  3184  24AB  3180   	fcall	__pidataBANK0	;fetch initializer
  1020     00D5  00D3               	movwf	__pdataBANK0& (0+127)
  1021     00D6  3184  24AC  3180   	fcall	__pidataBANK0+1	;fetch initializer
  1022     00D9  00D4               	movwf	(__pdataBANK0+1)& (0+127)
  1023                           
  1024                           ; Clear objects allocated to COMMON
  1025     00DA  01F0               	clrf	__pbssCOMMON& (0+127)
  1026     00DB  01F1               	clrf	(__pbssCOMMON+1)& (0+127)
  1027     00DC  01F2               	clrf	(__pbssCOMMON+2)& (0+127)
  1028     00DD  01F3               	clrf	(__pbssCOMMON+3)& (0+127)
  1029     00DE  01F4               	clrf	(__pbssCOMMON+4)& (0+127)
  1030     00DF  01F5               	clrf	(__pbssCOMMON+5)& (0+127)
  1031                           
  1032                           ; Clear objects allocated to BANK0
  1033     00E0  3020               	movlw	low __pbssBANK0
  1034     00E1  0084               	movwf	4
  1035     00E2  3000               	movlw	high __pbssBANK0
  1036     00E3  0085               	movwf	5
  1037     00E4  3022               	movlw	34
  1038     00E5  3184  249B         	fcall	clear_ram0
  1039     00E7                     end_of_initialization:	
  1040                           ;End of C runtime variable initialization code
  1041                           
  1042     00E7                     __end_of__initialization:
  1043     00E7  107E               	bcf	int$flags,0	;clear compiler interrupt flag (level 1)
  1044     00E8  0020               	movlb	0
  1045     00E9  3184  2C18         	ljmp	_main	;jump to C main() function
  1046                           
  1047                           	psect	bssCOMMON
  1048     0070                     __pbssCOMMON:
  1049     0070                     _current_halfcycle:
  1050     0070                     	ds	1
  1051     0071                     _current_one_quadrant_index:
  1052     0071                     	ds	1
  1053     0072                     _current_waveshape:
  1054     0072                     	ds	1
  1055     0073                     _duty:
  1056     0073                     	ds	2
  1057     0075                     _raw_TMR0:
  1058     0075                     	ds	1
  1059                           
  1060                           	psect	bssBANK0
  1061     0020                     __pbssBANK0:
  1062     0020                     _current_speed_log_32:
  1063     0020                     	ds	4
  1064     0024                     _current_speed_linear_32:
  1065     0024                     	ds	4
  1066     0028                     _speed_control_32:
  1067     0028                     	ds	4
  1068     002C                     _current_symmetry:
  1069     002C                     	ds	2
  1070     002E                     _current_depth:
  1071     002E                     	ds	2
  1072     0030                     _current_speed_log:
  1073     0030                     	ds	2
  1074     0032                     _current_speed_linear:
  1075     0032                     	ds	2
  1076     0034                     _how_many_128:
  1077     0034                     	ds	2
  1078     0036                     _speed_control_subtracted:
  1079     0036                     	ds	2
  1080     0038                     _speed_control:
  1081     0038                     	ds	2
  1082     003A                     _base_prescaler_bits_index:
  1083     003A                     	ds	1
  1084     003B                     _prescaler_adjust:
  1085     003B                     	ds	1
  1086     003C                     _TMR0_offset_sign:
  1087     003C                     	ds	1
  1088     003D                     _TMR0_offset:
  1089     003D                     	ds	1
  1090     003E                     _current_quadrant:
  1091     003E                     	ds	1
  1092     003F                     _duty_high_byte:
  1093     003F                     	ds	1
  1094     0040                     _duty_low_byte:
  1095     0040                     	ds	1
  1096     0041                     _final_TMR0:
  1097     0041                     	ds	1
  1098                           
  1099                           	psect	dataBANK0
  1100     0053                     __pdataBANK0:
  1101     0053                     _top_two_bytes_ptr:
  1102     0053                     	ds	2
  1103                           
  1104                           	psect	clrtext
  1105     049B                     clear_ram0:	
  1106                           ;	Called with FSR0 containing the base address, and
  1107                           ;	WREG with the size to clear
  1108                           
  1109     049B  0064               	clrwdt	;clear the watchdog before getting into this loop
  1110     049C                     clrloop0:
  1111     049C  0180               	clrf	0	;clear RAM location pointed to by FSR
  1112     049D  3101               	addfsr 0,1
  1113     049E  0B89               	decfsz	9,f	;Have we reached the end of clearing yet?
  1114     049F  2C9C               	goto	clrloop0	;have we reached the end yet?
  1115     04A0  3400               	retlw	0	;all done for this memory range, return
  1116                           
  1117                           	psect	cstackCOMMON
  1118     0076                     __pcstackCOMMON:
  1119     0076                     ?_CONFIG_INT_OSC:
  1120     0076                     ?_CONFIG_PORTS:	
  1121                           ; 1 bytes @ 0x0
  1122                           
  1123     0076                     ?_CONFIG_ADC_PINS:	
  1124                           ; 1 bytes @ 0x0
  1125                           
  1126     0076                     ?_DETERMINE_WAVESHAPE:	
  1127                           ; 1 bytes @ 0x0
  1128                           
  1129     0076                     ?_SET_DUTY_CCP3:	
  1130                           ; 1 bytes @ 0x0
  1131                           
  1132     0076                     ??_SET_DUTY_CCP3:	
  1133                           ; 1 bytes @ 0x0
  1134                           
  1135     0076                     ?_CONFIG_PWM_CCP3:	
  1136                           ; 1 bytes @ 0x0
  1137                           
  1138     0076                     ?_TURN_ON_CCP3_PWM:	
  1139                           ; 1 bytes @ 0x0
  1140                           
  1141     0076                     ?_CONFIG_TMR0_INTERRUPT:	
  1142                           ; 1 bytes @ 0x0
  1143                           
  1144     0076                     ?_CONFIG_SYSTEM:	
  1145                           ; 1 bytes @ 0x0
  1146                           
  1147     0076                     ?_TMR0_WRITE:	
  1148                           ; 1 bytes @ 0x0
  1149                           
  1150     0076                     ?_GET_CURRENT_POT_VALUES:	
  1151                           ; 1 bytes @ 0x0
  1152                           
  1153     0076                     ?_PROCESS_RAW_SPEED:	
  1154                           ; 1 bytes @ 0x0
  1155                           
  1156     0076                     ?_INTERRUPT_InterruptManager:	
  1157                           ; 1 bytes @ 0x0
  1158                           
  1159     0076                     ?_main:	
  1160                           ; 1 bytes @ 0x0
  1161                           
  1162                           
  1163                           ; 1 bytes @ 0x0
  1164     0076                     	ds	2
  1165     0078                     SET_DUTY_CCP3@temp:
  1166                           
  1167                           ; 1 bytes @ 0x2
  1168     0078                     	ds	1
  1169     0079                     SET_DUTY_CCP3@duty_ptr:
  1170                           
  1171                           ; 1 bytes @ 0x3
  1172     0079                     	ds	1
  1173     007A                     ??_INTERRUPT_InterruptManager:
  1174                           
  1175                           ; 1 bytes @ 0x4
  1176     007A                     	ds	2
  1177                           
  1178                           	psect	cstackBANK0
  1179     0042                     __pcstackBANK0:
  1180     0042                     ??_CONFIG_INT_OSC:
  1181     0042                     ??_CONFIG_PORTS:	
  1182                           ; 1 bytes @ 0x0
  1183                           
  1184     0042                     ??_CONFIG_ADC_PINS:	
  1185                           ; 1 bytes @ 0x0
  1186                           
  1187     0042                     ??_CONFIG_PWM_CCP3:	
  1188                           ; 1 bytes @ 0x0
  1189                           
  1190     0042                     ??_TURN_ON_CCP3_PWM:	
  1191                           ; 1 bytes @ 0x0
  1192                           
  1193     0042                     ??_CONFIG_TMR0_INTERRUPT:	
  1194                           ; 1 bytes @ 0x0
  1195                           
  1196     0042                     ??_CONFIG_SYSTEM:	
  1197                           ; 1 bytes @ 0x0
  1198                           
  1199     0042                     ??_TMR0_WRITE:	
  1200                           ; 1 bytes @ 0x0
  1201                           
  1202     0042                     ?_DO_ADC:	
  1203                           ; 1 bytes @ 0x0
  1204                           
  1205     0042                     ?___lmul:	
  1206                           ; 2 bytes @ 0x0
  1207                           
  1208     0042                     TMR0_WRITE@timer_value_ptr:	
  1209                           ; 4 bytes @ 0x0
  1210                           
  1211     0042                     DO_ADC@modifier:	
  1212                           ; 1 bytes @ 0x0
  1213                           
  1214     0042                     ___lmul@multiplier:	
  1215                           ; 2 bytes @ 0x0
  1216                           
  1217                           
  1218                           ; 4 bytes @ 0x0
  1219     0042                     	ds	2
  1220     0044                     ??_DO_ADC:
  1221                           
  1222                           ; 1 bytes @ 0x2
  1223     0044                     	ds	1
  1224     0045                     DO_ADC@adc_result:
  1225                           
  1226                           ; 2 bytes @ 0x3
  1227     0045                     	ds	1
  1228     0046                     ___lmul@multiplicand:
  1229                           
  1230                           ; 4 bytes @ 0x4
  1231     0046                     	ds	1
  1232     0047                     DO_ADC@temp:
  1233                           
  1234                           ; 1 bytes @ 0x5
  1235     0047                     	ds	1
  1236     0048                     ??_DETERMINE_WAVESHAPE:
  1237     0048                     DETERMINE_WAVESHAPE@ADC:	
  1238                           ; 1 bytes @ 0x6
  1239                           
  1240                           
  1241                           ; 2 bytes @ 0x6
  1242     0048                     	ds	2
  1243     004A                     ??_GET_CURRENT_POT_VALUES:
  1244     004A                     ??___lmul:	
  1245                           ; 1 bytes @ 0x8
  1246                           
  1247     004A                     ___lmul@product:	
  1248                           ; 1 bytes @ 0x8
  1249                           
  1250                           
  1251                           ; 4 bytes @ 0x8
  1252     004A                     	ds	4
  1253     004E                     ??_PROCESS_RAW_SPEED:
  1254                           
  1255                           ; 1 bytes @ 0xC
  1256     004E                     	ds	4
  1257     0052                     ??_main:
  1258                           
  1259                           ; 1 bytes @ 0x10
  1260     0052                     	ds	1
  1261                           
  1262                           	psect	maintext
  1263     0418                     __pmaintext:	
  1264 ;;
  1265 ;;Main: autosize = 0, tempsize = 1, incstack = 0, save=0
  1266 ;;
  1267 ;; *************** function _main *****************
  1268 ;; Defined at:
  1269 ;;		line 459 in file "main.c"
  1270 ;; Parameters:    Size  Location     Type
  1271 ;;		None
  1272 ;; Auto vars:     Size  Location     Type
  1273 ;;		None
  1274 ;; Return value:  Size  Location     Type
  1275 ;;                  1    wreg      void 
  1276 ;; Registers used:
  1277 ;;		wreg, fsr0l, fsr0h, fsr1l, fsr1h, status,2, status,0, pclath, cstack
  1278 ;; Tracked objects:
  1279 ;;		On entry : B1F/0
  1280 ;;		On exit  : 1F/0
  1281 ;;		Unchanged: 0/0
  1282 ;; Data sizes:     COMMON   BANK0   BANK1   BANK2
  1283 ;;      Params:         0       0       0       0
  1284 ;;      Locals:         0       0       0       0
  1285 ;;      Temps:          0       1       0       0
  1286 ;;      Totals:         0       1       0       0
  1287 ;;Total ram usage:        1 bytes
  1288 ;; Hardware stack levels required when called: 5
  1289 ;; This function calls:
  1290 ;;		_CONFIG_SYSTEM
  1291 ;;		_CONFIG_TMR0_INTERRUPT
  1292 ;;		_GET_CURRENT_POT_VALUES
  1293 ;;		_PROCESS_RAW_SPEED
  1294 ;;		_TMR0_WRITE
  1295 ;;		_TURN_ON_CCP3_PWM
  1296 ;; This function is called by:
  1297 ;;		Startup code after reset
  1298 ;; This function uses a non-reentrant model
  1299 ;;
  1300                           
  1301     0418                     _main:	
  1302                           ;psect for function _main
  1303                           
  1304                           
  1305                           ;main.c: 461:     CONFIG_SYSTEM();
  1306                           
  1307                           ;incstack = 0
  1308                           ; Regs used in _main: [wreg-fsr1h+status,2+status,0+pclath+cstack]
  1309     0418  3184  246F  3184   	fcall	_CONFIG_SYSTEM
  1310                           
  1311                           ;main.c: 462:     TURN_ON_CCP3_PWM();
  1312     041B  3184  248C  3184   	fcall	_TURN_ON_CCP3_PWM
  1313                           
  1314                           ;main.c: 463:     CONFIG_TMR0_INTERRUPT();
  1315     041E  3184  24AD  3184   	fcall	_CONFIG_TMR0_INTERRUPT
  1316                           
  1317                           ;main.c: 464:     GET_CURRENT_POT_VALUES();
  1318     0421  3183  2359  3184   	fcall	_GET_CURRENT_POT_VALUES
  1319                           
  1320                           ;main.c: 465:     PROCESS_RAW_SPEED();
  1321     0424  3182  22EF  3184   	fcall	_PROCESS_RAW_SPEED
  1322                           
  1323                           ;main.c: 466:     TMR0_WRITE(&raw_TMR0);
  1324     0427  3075               	movlw	(low (_raw_TMR0| 0))& (0+255)
  1325     0428  3184  2494  3184   	fcall	_TMR0_WRITE
  1326                           
  1327                           ;main.c: 468:     GIE = 1;
  1328     042B  178B               	bsf	11,7	;volatile
  1329     042C                     l1314:
  1330                           
  1331                           ;main.c: 471:         _delay((unsigned long)((10)*(32000000/4000.0)));
  1332     042C  3068               	movlw	104
  1333     042D  0020               	movlb	0	; select bank0
  1334     042E  00D2               	movwf	??_main
  1335     042F  30E4               	movlw	228
  1336     0430                     u647:
  1337     0430  0B89               	decfsz	9,f
  1338     0431  2C30               	goto	u647
  1339     0432  0BD2               	decfsz	??_main,f
  1340     0433  2C30               	goto	u647
  1341     0434  0000               	nop
  1342                           
  1343                           ;main.c: 472:         GET_CURRENT_POT_VALUES();
  1344     0435  3183  2359  3184   	fcall	_GET_CURRENT_POT_VALUES
  1345                           
  1346                           ;main.c: 473:         PROCESS_RAW_SPEED();
  1347     0438  3182  22EF  3184   	fcall	_PROCESS_RAW_SPEED
  1348     043B  2C2C               	goto	l1314
  1349     043C                     __end_of_main:
  1350                           
  1351                           	psect	text1
  1352     048C                     __ptext1:	
  1353 ;; *************** function _TURN_ON_CCP3_PWM *****************
  1354 ;; Defined at:
  1355 ;;		line 212 in file "main.c"
  1356 ;; Parameters:    Size  Location     Type
  1357 ;;		None
  1358 ;; Auto vars:     Size  Location     Type
  1359 ;;		None
  1360 ;; Return value:  Size  Location     Type
  1361 ;;                  1    wreg      void 
  1362 ;; Registers used:
  1363 ;;		None
  1364 ;; Tracked objects:
  1365 ;;		On entry : B1F/0
  1366 ;;		On exit  : B1F/1
  1367 ;;		Unchanged: B00/0
  1368 ;; Data sizes:     COMMON   BANK0   BANK1   BANK2
  1369 ;;      Params:         0       0       0       0
  1370 ;;      Locals:         0       0       0       0
  1371 ;;      Temps:          0       0       0       0
  1372 ;;      Totals:         0       0       0       0
  1373 ;;Total ram usage:        0 bytes
  1374 ;; Hardware stack levels used: 1
  1375 ;; Hardware stack levels required when called: 2
  1376 ;; This function calls:
  1377 ;;		Nothing
  1378 ;; This function is called by:
  1379 ;;		_main
  1380 ;; This function uses a non-reentrant model
  1381 ;;
  1382                           
  1383     048C                     _TURN_ON_CCP3_PWM:	
  1384                           ;psect for function _TURN_ON_CCP3_PWM
  1385                           
  1386                           
  1387                           ;main.c: 214:     TMR2IF = 0;
  1388                           
  1389                           ;incstack = 0
  1390                           ; Regs used in _TURN_ON_CCP3_PWM: []
  1391     048C  1091               	bcf	17,1	;volatile
  1392                           
  1393                           ;main.c: 215:     TMR2ON = 1;
  1394     048D  151C               	bsf	28,2	;volatile
  1395     048E                     l159:	
  1396                           ;main.c: 216:     while(TMR2IF == 0){}
  1397                           
  1398     048E  1C91               	btfss	17,1	;volatile
  1399     048F  2C8E               	goto	l159
  1400                           
  1401                           ;main.c: 217:     TMR2IF = 0;
  1402     0490  1091               	bcf	17,1	;volatile
  1403                           
  1404                           ;main.c: 218:     TRISA2 = 0;
  1405     0491  0021               	movlb	1	; select bank1
  1406     0492  110C               	bcf	12,2	;volatile
  1407     0493  0008               	return
  1408     0494                     __end_of_TURN_ON_CCP3_PWM:
  1409                           
  1410                           	psect	text2
  1411     0494                     __ptext2:	
  1412 ;; *************** function _TMR0_WRITE *****************
  1413 ;; Defined at:
  1414 ;;		line 237 in file "main.c"
  1415 ;; Parameters:    Size  Location     Type
  1416 ;;  timer_value_    1    wreg     PTR volatile unsigned ch
  1417 ;;		 -> raw_TMR0(1), 
  1418 ;; Auto vars:     Size  Location     Type
  1419 ;;  timer_value_    1    0[BANK0 ] PTR volatile unsigned ch
  1420 ;;		 -> raw_TMR0(1), 
  1421 ;; Return value:  Size  Location     Type
  1422 ;;                  1    wreg      void 
  1423 ;; Registers used:
  1424 ;;		wreg, fsr1l, fsr1h
  1425 ;; Tracked objects:
  1426 ;;		On entry : 1F/0
  1427 ;;		On exit  : 1F/0
  1428 ;;		Unchanged: 0/0
  1429 ;; Data sizes:     COMMON   BANK0   BANK1   BANK2
  1430 ;;      Params:         0       0       0       0
  1431 ;;      Locals:         0       1       0       0
  1432 ;;      Temps:          0       0       0       0
  1433 ;;      Totals:         0       1       0       0
  1434 ;;Total ram usage:        1 bytes
  1435 ;; Hardware stack levels used: 1
  1436 ;; Hardware stack levels required when called: 2
  1437 ;; This function calls:
  1438 ;;		Nothing
  1439 ;; This function is called by:
  1440 ;;		_main
  1441 ;; This function uses a non-reentrant model
  1442 ;;
  1443                           
  1444     0494                     _TMR0_WRITE:	
  1445                           ;psect for function _TMR0_WRITE
  1446                           
  1447                           
  1448                           ;incstack = 0
  1449                           ; Regs used in _TMR0_WRITE: [wregfsr1]
  1450                           ;TMR0_WRITE@timer_value_ptr stored from wreg
  1451     0494  00C2               	movwf	TMR0_WRITE@timer_value_ptr
  1452                           
  1453                           ;main.c: 238:     TMR0 = (uint8_t) *timer_value_ptr;
  1454     0495  0842               	movf	TMR0_WRITE@timer_value_ptr,w
  1455     0496  0086               	movwf	6
  1456     0497  0187               	clrf	7
  1457     0498  0801               	movf	1,w
  1458     0499  0095               	movwf	21	;volatile
  1459     049A  0008               	return
  1460     049B                     __end_of_TMR0_WRITE:
  1461                           
  1462                           	psect	text3
  1463     02EF                     __ptext3:	
  1464 ;; *************** function _PROCESS_RAW_SPEED *****************
  1465 ;; Defined at:
  1466 ;;		line 250 in file "main.c"
  1467 ;; Parameters:    Size  Location     Type
  1468 ;;		None
  1469 ;; Auto vars:     Size  Location     Type
  1470 ;;		None
  1471 ;; Return value:  Size  Location     Type
  1472 ;;                  1    wreg      void 
  1473 ;; Registers used:
  1474 ;;		wreg, status,2, status,0, pclath, cstack
  1475 ;; Tracked objects:
  1476 ;;		On entry : 1F/0
  1477 ;;		On exit  : 1F/0
  1478 ;;		Unchanged: 0/0
  1479 ;; Data sizes:     COMMON   BANK0   BANK1   BANK2
  1480 ;;      Params:         0       0       0       0
  1481 ;;      Locals:         0       0       0       0
  1482 ;;      Temps:          0       4       0       0
  1483 ;;      Totals:         0       4       0       0
  1484 ;;Total ram usage:        4 bytes
  1485 ;; Hardware stack levels used: 1
  1486 ;; Hardware stack levels required when called: 3
  1487 ;; This function calls:
  1488 ;;		___lmul
  1489 ;; This function is called by:
  1490 ;;		_main
  1491 ;; This function uses a non-reentrant model
  1492 ;;
  1493                           
  1494     02EF                     _PROCESS_RAW_SPEED:	
  1495                           ;psect for function _PROCESS_RAW_SPEED
  1496                           
  1497                           
  1498                           ;main.c: 251:     current_speed_linear_32 = current_speed_linear;
  1499                           
  1500                           ;incstack = 0
  1501                           ; Regs used in _PROCESS_RAW_SPEED: [wreg+status,2+status,0+pclath+cstack]
  1502     02EF  0832               	movf	_current_speed_linear,w	;volatile
  1503     02F0  00A4               	movwf	_current_speed_linear_32	;volatile
  1504     02F1  0833               	movf	_current_speed_linear+1,w	;volatile
  1505     02F2  00A5               	movwf	_current_speed_linear_32+1	;volatile
  1506     02F3  01A6               	clrf	_current_speed_linear_32+2	;volatile
  1507     02F4  01A7               	clrf	_current_speed_linear_32+3	;volatile
  1508                           
  1509                           ;main.c: 252:     speed_control_32 = current_speed_linear_32 * 650;;
  1510     02F5  0827               	movf	_current_speed_linear_32+3,w	;volatile
  1511     02F6  00C5               	movwf	___lmul@multiplier+3
  1512     02F7  0826               	movf	_current_speed_linear_32+2,w	;volatile
  1513     02F8  00C4               	movwf	___lmul@multiplier+2
  1514     02F9  0825               	movf	_current_speed_linear_32+1,w	;volatile
  1515     02FA  00C3               	movwf	___lmul@multiplier+1
  1516     02FB  0824               	movf	_current_speed_linear_32,w	;volatile
  1517     02FC  00C2               	movwf	___lmul@multiplier
  1518     02FD  3000               	movlw	0
  1519     02FE  00C9               	movwf	___lmul@multiplicand+3
  1520     02FF  3000               	movlw	0
  1521     0300  00C8               	movwf	___lmul@multiplicand+2
  1522     0301  3002               	movlw	2
  1523     0302  00C7               	movwf	___lmul@multiplicand+1
  1524     0303  308A               	movlw	138
  1525     0304  00C6               	movwf	___lmul@multiplicand
  1526     0305  3183  2396  3182   	fcall	___lmul
  1527     0308  0845               	movf	?___lmul+3,w
  1528     0309  00AB               	movwf	_speed_control_32+3	;volatile
  1529     030A  0844               	movf	?___lmul+2,w
  1530     030B  00AA               	movwf	_speed_control_32+2	;volatile
  1531     030C  0843               	movf	?___lmul+1,w
  1532     030D  00A9               	movwf	_speed_control_32+1	;volatile
  1533     030E  0842               	movf	?___lmul,w
  1534     030F  00A8               	movwf	_speed_control_32	;volatile
  1535                           
  1536                           ;main.c: 253:     speed_control_32 = speed_control_32 >> 10;
  1537     0310  0828               	movf	_speed_control_32,w	;volatile
  1538     0311  00CE               	movwf	??_PROCESS_RAW_SPEED
  1539     0312  0829               	movf	_speed_control_32+1,w	;volatile
  1540     0313  00CF               	movwf	??_PROCESS_RAW_SPEED+1
  1541     0314  082A               	movf	_speed_control_32+2,w	;volatile
  1542     0315  00D0               	movwf	??_PROCESS_RAW_SPEED+2
  1543     0316  082B               	movf	_speed_control_32+3,w	;volatile
  1544     0317  00D1               	movwf	??_PROCESS_RAW_SPEED+3
  1545     0318  300A               	movlw	10
  1546     0319                     u605:
  1547     0319  36D1               	lsrf	??_PROCESS_RAW_SPEED+3,f
  1548     031A  0CD0               	rrf	??_PROCESS_RAW_SPEED+2,f
  1549     031B  0CCF               	rrf	??_PROCESS_RAW_SPEED+1,f
  1550     031C  0CCE               	rrf	??_PROCESS_RAW_SPEED,f
  1551     031D  0B89               	decfsz	9,f
  1552     031E  2B19               	goto	u605
  1553     031F  0851               	movf	??_PROCESS_RAW_SPEED+3,w
  1554     0320  00AB               	movwf	_speed_control_32+3	;volatile
  1555     0321  0850               	movf	??_PROCESS_RAW_SPEED+2,w
  1556     0322  00AA               	movwf	_speed_control_32+2	;volatile
  1557     0323  084F               	movf	??_PROCESS_RAW_SPEED+1,w
  1558     0324  00A9               	movwf	_speed_control_32+1	;volatile
  1559     0325  084E               	movf	??_PROCESS_RAW_SPEED,w
  1560     0326  00A8               	movwf	_speed_control_32	;volatile
  1561                           
  1562                           ;main.c: 254:     speed_control = (uint16_t) speed_control_32;
  1563     0327  0829               	movf	_speed_control_32+1,w	;volatile
  1564     0328  00B9               	movwf	_speed_control+1	;volatile
  1565     0329  0828               	movf	_speed_control_32,w	;volatile
  1566     032A  00B8               	movwf	_speed_control	;volatile
  1567                           
  1568                           ;main.c: 256:         if(speed_control <= (127-12)){
  1569     032B  3000               	movlw	0
  1570     032C  0239               	subwf	_speed_control+1,w	;volatile
  1571     032D  3074               	movlw	116
  1572     032E  1903               	skipnz
  1573     032F  0238               	subwf	_speed_control,w	;volatile
  1574     0330  1803               	skipnc
  1575     0331  2B38               	goto	l1298
  1576                           
  1577                           ;main.c: 257:             raw_TMR0 = (uint8_t) speed_control + 12;
  1578     0332  0838               	movf	_speed_control,w	;volatile
  1579     0333  3E0C               	addlw	12
  1580     0334  00F5               	movwf	_raw_TMR0	;volatile
  1581                           
  1582                           ;main.c: 259:             base_prescaler_bits_index = 1;
  1583     0335  3001               	movlw	1
  1584     0336  00BA               	movwf	_base_prescaler_bits_index	;volatile
  1585                           
  1586                           ;main.c: 260:         }
  1587     0337  0008               	return
  1588     0338                     l1298:
  1589                           
  1590                           ;main.c: 262:             speed_control_subtracted = speed_control - (127-12);
  1591     0338  0838               	movf	_speed_control,w	;volatile
  1592     0339  3E8D               	addlw	141
  1593     033A  00B6               	movwf	_speed_control_subtracted	;volatile
  1594     033B  30FF               	movlw	255
  1595     033C  3D39               	addwfc	_speed_control+1,w	;volatile
  1596     033D  00B7               	movwf	_speed_control_subtracted+1	;volatile
  1597                           
  1598                           ;main.c: 263:             how_many_128 = speed_control_subtracted >> 7;
  1599     033E  0837               	movf	_speed_control_subtracted+1,w	;volatile
  1600     033F  00CF               	movwf	??_PROCESS_RAW_SPEED+1
  1601     0340  0836               	movf	_speed_control_subtracted,w	;volatile
  1602     0341  00CE               	movwf	??_PROCESS_RAW_SPEED
  1603     0342  3007               	movlw	7
  1604     0343                     u625:
  1605     0343  36CF               	lsrf	??_PROCESS_RAW_SPEED+1,f
  1606     0344  0CCE               	rrf	??_PROCESS_RAW_SPEED,f
  1607     0345  0B89               	decfsz	9,f
  1608     0346  2B43               	goto	u625
  1609     0347  084E               	movf	??_PROCESS_RAW_SPEED,w
  1610     0348  00B4               	movwf	_how_many_128	;volatile
  1611     0349  084F               	movf	??_PROCESS_RAW_SPEED+1,w
  1612     034A  00B5               	movwf	_how_many_128+1	;volatile
  1613                           
  1614                           ;main.c: 264:             raw_TMR0 = (uint8_t) (speed_control_subtracted - (how_many_128
      +                           << 7));
  1615     034B  0834               	movf	_how_many_128,w	;volatile
  1616     034C  00CE               	movwf	??_PROCESS_RAW_SPEED
  1617     034D  3006               	movlw	6
  1618     034E                     u635:
  1619     034E  35CE               	lslf	??_PROCESS_RAW_SPEED,f
  1620     034F  3EFF               	addlw	-1
  1621     0350  1D03               	skipz
  1622     0351  2B4E               	goto	u635
  1623     0352  354E               	lslf	??_PROCESS_RAW_SPEED,w
  1624     0353  0736               	addwf	_speed_control_subtracted,w	;volatile
  1625     0354  00F5               	movwf	_raw_TMR0	;volatile
  1626                           
  1627                           ;main.c: 266:             base_prescaler_bits_index = how_many_128 + 2;
  1628     0355  0834               	movf	_how_many_128,w	;volatile
  1629     0356  3E02               	addlw	2
  1630     0357  00BA               	movwf	_base_prescaler_bits_index	;volatile
  1631     0358  0008               	return
  1632     0359                     __end_of_PROCESS_RAW_SPEED:
  1633                           
  1634                           	psect	text4
  1635     0396                     __ptext4:	
  1636 ;; *************** function ___lmul *****************
  1637 ;; Defined at:
  1638 ;;		line 15 in file "/Applications/microchip/xc8/v2.45/pic/sources/c99/common/Umul32.c"
  1639 ;; Parameters:    Size  Location     Type
  1640 ;;  multiplier      4    0[BANK0 ] unsigned long 
  1641 ;;  multiplicand    4    4[BANK0 ] unsigned long 
  1642 ;; Auto vars:     Size  Location     Type
  1643 ;;  product         4    8[BANK0 ] unsigned long 
  1644 ;; Return value:  Size  Location     Type
  1645 ;;                  4    0[BANK0 ] unsigned long 
  1646 ;; Registers used:
  1647 ;;		wreg, status,2, status,0
  1648 ;; Tracked objects:
  1649 ;;		On entry : 1F/0
  1650 ;;		On exit  : 1F/0
  1651 ;;		Unchanged: 0/0
  1652 ;; Data sizes:     COMMON   BANK0   BANK1   BANK2
  1653 ;;      Params:         0       8       0       0
  1654 ;;      Locals:         0       4       0       0
  1655 ;;      Temps:          0       0       0       0
  1656 ;;      Totals:         0      12       0       0
  1657 ;;Total ram usage:       12 bytes
  1658 ;; Hardware stack levels used: 1
  1659 ;; Hardware stack levels required when called: 2
  1660 ;; This function calls:
  1661 ;;		Nothing
  1662 ;; This function is called by:
  1663 ;;		_PROCESS_RAW_SPEED
  1664 ;; This function uses a non-reentrant model
  1665 ;;
  1666                           
  1667     0396                     ___lmul:	
  1668                           ;psect for function ___lmul
  1669                           
  1670                           
  1671                           ;incstack = 0
  1672                           ; Regs used in ___lmul: [wreg+status,2+status,0]
  1673     0396  3000               	movlw	0
  1674     0397  00CD               	movwf	___lmul@product+3
  1675     0398  3000               	movlw	0
  1676     0399  00CC               	movwf	___lmul@product+2
  1677     039A  3000               	movlw	0
  1678     039B  00CB               	movwf	___lmul@product+1
  1679     039C  3000               	movlw	0
  1680     039D  00CA               	movwf	___lmul@product
  1681     039E                     l1258:
  1682     039E  1C42               	btfss	___lmul@multiplier,0
  1683     039F  2BA8               	goto	l1262
  1684     03A0  0846               	movf	___lmul@multiplicand,w
  1685     03A1  07CA               	addwf	___lmul@product,f
  1686     03A2  0847               	movf	___lmul@multiplicand+1,w
  1687     03A3  3DCB               	addwfc	___lmul@product+1,f
  1688     03A4  0848               	movf	___lmul@multiplicand+2,w
  1689     03A5  3DCC               	addwfc	___lmul@product+2,f
  1690     03A6  0849               	movf	___lmul@multiplicand+3,w
  1691     03A7  3DCD               	addwfc	___lmul@product+3,f
  1692     03A8                     l1262:
  1693     03A8  3001               	movlw	1
  1694     03A9                     u565:
  1695     03A9  35C6               	lslf	___lmul@multiplicand,f
  1696     03AA  0DC7               	rlf	___lmul@multiplicand+1,f
  1697     03AB  0DC8               	rlf	___lmul@multiplicand+2,f
  1698     03AC  0DC9               	rlf	___lmul@multiplicand+3,f
  1699     03AD  0B89               	decfsz	9,f
  1700     03AE  2BA9               	goto	u565
  1701     03AF  3001               	movlw	1
  1702     03B0                     u575:
  1703     03B0  36C5               	lsrf	___lmul@multiplier+3,f
  1704     03B1  0CC4               	rrf	___lmul@multiplier+2,f
  1705     03B2  0CC3               	rrf	___lmul@multiplier+1,f
  1706     03B3  0CC2               	rrf	___lmul@multiplier,f
  1707     03B4  0B89               	decfsz	9,f
  1708     03B5  2BB0               	goto	u575
  1709     03B6  0845               	movf	___lmul@multiplier+3,w
  1710     03B7  0444               	iorwf	___lmul@multiplier+2,w
  1711     03B8  0443               	iorwf	___lmul@multiplier+1,w
  1712     03B9  0442               	iorwf	___lmul@multiplier,w
  1713     03BA  1D03               	skipz
  1714     03BB  2B9E               	goto	l1258
  1715     03BC  084D               	movf	___lmul@product+3,w
  1716     03BD  00C5               	movwf	?___lmul+3
  1717     03BE  084C               	movf	___lmul@product+2,w
  1718     03BF  00C4               	movwf	?___lmul+2
  1719     03C0  084B               	movf	___lmul@product+1,w
  1720     03C1  00C3               	movwf	?___lmul+1
  1721     03C2  084A               	movf	___lmul@product,w
  1722     03C3  00C2               	movwf	?___lmul
  1723     03C4  0008               	return
  1724     03C5                     __end_of___lmul:
  1725                           
  1726                           	psect	text5
  1727     0359                     __ptext5:	
  1728 ;; *************** function _GET_CURRENT_POT_VALUES *****************
  1729 ;; Defined at:
  1730 ;;		line 241 in file "main.c"
  1731 ;; Parameters:    Size  Location     Type
  1732 ;;		None
  1733 ;; Auto vars:     Size  Location     Type
  1734 ;;		None
  1735 ;; Return value:  Size  Location     Type
  1736 ;;                  1    wreg      void 
  1737 ;; Registers used:
  1738 ;;		wreg, fsr0l, fsr0h, status,2, status,0, pclath, cstack
  1739 ;; Tracked objects:
  1740 ;;		On entry : 0/1
  1741 ;;		On exit  : 1F/0
  1742 ;;		Unchanged: 0/0
  1743 ;; Data sizes:     COMMON   BANK0   BANK1   BANK2
  1744 ;;      Params:         0       0       0       0
  1745 ;;      Locals:         0       0       0       0
  1746 ;;      Temps:          0       2       0       0
  1747 ;;      Totals:         0       2       0       0
  1748 ;;Total ram usage:        2 bytes
  1749 ;; Hardware stack levels used: 1
  1750 ;; Hardware stack levels required when called: 4
  1751 ;; This function calls:
  1752 ;;		_DETERMINE_WAVESHAPE
  1753 ;;		_DO_ADC
  1754 ;; This function is called by:
  1755 ;;		_main
  1756 ;; This function uses a non-reentrant model
  1757 ;;
  1758                           
  1759     0359                     _GET_CURRENT_POT_VALUES:	
  1760                           ;psect for function _GET_CURRENT_POT_VALUES
  1761                           
  1762                           
  1763                           ;main.c: 242:     current_waveshape = DETERMINE_WAVESHAPE();
  1764                           
  1765                           ;incstack = 0
  1766                           ; Regs used in _GET_CURRENT_POT_VALUES: [wreg-fsr0h+status,2+status,0+pclath+cstack]
  1767     0359  3183  23F1  3183   	fcall	_DETERMINE_WAVESHAPE
  1768     035C  00F2               	movwf	_current_waveshape	;volatile
  1769                           
  1770                           ;main.c: 243:     current_speed_linear = DO_ADC(&speed_adc_config_value);
  1771     035D  30B6               	movlw	low (_speed_adc_config_value| (0+32768))
  1772     035E  00C2               	movwf	DO_ADC@modifier
  1773     035F  3084               	movlw	high (_speed_adc_config_value| (0+32768))
  1774     0360  00C3               	movwf	DO_ADC@modifier+1
  1775     0361  3183  23C5  3183   	fcall	_DO_ADC
  1776     0364  0843               	movf	?_DO_ADC+1,w
  1777     0365  00B3               	movwf	_current_speed_linear+1	;volatile
  1778     0366  0842               	movf	?_DO_ADC,w
  1779     0367  00B2               	movwf	_current_speed_linear	;volatile
  1780                           
  1781                           ;main.c: 244:     current_depth = DO_ADC(&depth_adc_config_value);
  1782     0368  30B5               	movlw	low (_depth_adc_config_value| (0+32768))
  1783     0369  00C2               	movwf	DO_ADC@modifier
  1784     036A  3084               	movlw	high (_depth_adc_config_value| (0+32768))
  1785     036B  00C3               	movwf	DO_ADC@modifier+1
  1786     036C  3183  23C5  3183   	fcall	_DO_ADC
  1787     036F  0843               	movf	?_DO_ADC+1,w
  1788     0370  00AF               	movwf	_current_depth+1	;volatile
  1789     0371  0842               	movf	?_DO_ADC,w
  1790     0372  00AE               	movwf	_current_depth	;volatile
  1791                           
  1792                           ;main.c: 245:     current_depth = current_depth >> 2;
  1793     0373  082F               	movf	_current_depth+1,w	;volatile
  1794     0374  00CB               	movwf	??_GET_CURRENT_POT_VALUES+1
  1795     0375  082E               	movf	_current_depth,w	;volatile
  1796     0376  00CA               	movwf	??_GET_CURRENT_POT_VALUES
  1797     0377  36CB               	lsrf	??_GET_CURRENT_POT_VALUES+1,f
  1798     0378  0CCA               	rrf	??_GET_CURRENT_POT_VALUES,f
  1799     0379  36CB               	lsrf	??_GET_CURRENT_POT_VALUES+1,f
  1800     037A  0CCA               	rrf	??_GET_CURRENT_POT_VALUES,f
  1801     037B  084A               	movf	??_GET_CURRENT_POT_VALUES,w
  1802     037C  00AE               	movwf	_current_depth	;volatile
  1803     037D  084B               	movf	??_GET_CURRENT_POT_VALUES+1,w
  1804     037E  00AF               	movwf	_current_depth+1	;volatile
  1805                           
  1806                           ;main.c: 246:     current_symmetry = DO_ADC(&symmetry_adc_config_value);
  1807     037F  30B4               	movlw	low (_symmetry_adc_config_value| (0+32768))
  1808     0380  00C2               	movwf	DO_ADC@modifier
  1809     0381  3084               	movlw	high (_symmetry_adc_config_value| (0+32768))
  1810     0382  00C3               	movwf	DO_ADC@modifier+1
  1811     0383  3183  23C5         	fcall	_DO_ADC
  1812     0385  0843               	movf	?_DO_ADC+1,w
  1813     0386  00AD               	movwf	_current_symmetry+1	;volatile
  1814     0387  0842               	movf	?_DO_ADC,w
  1815     0388  00AC               	movwf	_current_symmetry	;volatile
  1816                           
  1817                           ;main.c: 247:     current_symmetry = current_symmetry >> 2;
  1818     0389  082D               	movf	_current_symmetry+1,w	;volatile
  1819     038A  00CB               	movwf	??_GET_CURRENT_POT_VALUES+1
  1820     038B  082C               	movf	_current_symmetry,w	;volatile
  1821     038C  00CA               	movwf	??_GET_CURRENT_POT_VALUES
  1822     038D  36CB               	lsrf	??_GET_CURRENT_POT_VALUES+1,f
  1823     038E  0CCA               	rrf	??_GET_CURRENT_POT_VALUES,f
  1824     038F  36CB               	lsrf	??_GET_CURRENT_POT_VALUES+1,f
  1825     0390  0CCA               	rrf	??_GET_CURRENT_POT_VALUES,f
  1826     0391  084A               	movf	??_GET_CURRENT_POT_VALUES,w
  1827     0392  00AC               	movwf	_current_symmetry	;volatile
  1828     0393  084B               	movf	??_GET_CURRENT_POT_VALUES+1,w
  1829     0394  00AD               	movwf	_current_symmetry+1	;volatile
  1830     0395  0008               	return
  1831     0396                     __end_of_GET_CURRENT_POT_VALUES:
  1832                           
  1833                           	psect	text6
  1834     03F1                     __ptext6:	
  1835 ;; *************** function _DETERMINE_WAVESHAPE *****************
  1836 ;; Defined at:
  1837 ;;		line 166 in file "main.c"
  1838 ;; Parameters:    Size  Location     Type
  1839 ;;		None
  1840 ;; Auto vars:     Size  Location     Type
  1841 ;;  ADC             2    6[BANK0 ] unsigned short 
  1842 ;; Return value:  Size  Location     Type
  1843 ;;                  1    wreg      unsigned char 
  1844 ;; Registers used:
  1845 ;;		wreg, fsr0l, fsr0h, status,2, status,0, pclath, cstack
  1846 ;; Tracked objects:
  1847 ;;		On entry : 0/1
  1848 ;;		On exit  : 1F/0
  1849 ;;		Unchanged: 0/0
  1850 ;; Data sizes:     COMMON   BANK0   BANK1   BANK2
  1851 ;;      Params:         0       0       0       0
  1852 ;;      Locals:         0       2       0       0
  1853 ;;      Temps:          0       0       0       0
  1854 ;;      Totals:         0       2       0       0
  1855 ;;Total ram usage:        2 bytes
  1856 ;; Hardware stack levels used: 1
  1857 ;; Hardware stack levels required when called: 3
  1858 ;; This function calls:
  1859 ;;		_DO_ADC
  1860 ;; This function is called by:
  1861 ;;		_GET_CURRENT_POT_VALUES
  1862 ;; This function uses a non-reentrant model
  1863 ;;
  1864                           
  1865     03F1                     _DETERMINE_WAVESHAPE:	
  1866                           ;psect for function _DETERMINE_WAVESHAPE
  1867                           
  1868                           
  1869                           ;main.c: 167:     uint16_t ADC = DO_ADC(&waveshape_adc_config_value);
  1870                           
  1871                           ;incstack = 0
  1872                           ; Regs used in _DETERMINE_WAVESHAPE: [wreg-fsr0h+status,2+status,0+pclath+cstack]
  1873     03F1  30B7               	movlw	low (_waveshape_adc_config_value| (0+32768))
  1874     03F2  0020               	movlb	0	; select bank0
  1875     03F3  00C2               	movwf	DO_ADC@modifier
  1876     03F4  3084               	movlw	high (_waveshape_adc_config_value| (0+32768))
  1877     03F5  00C3               	movwf	DO_ADC@modifier+1
  1878     03F6  3183  23C5  3183   	fcall	_DO_ADC
  1879     03F9  0843               	movf	?_DO_ADC+1,w
  1880     03FA  00C9               	movwf	DETERMINE_WAVESHAPE@ADC+1
  1881     03FB  0842               	movf	?_DO_ADC,w
  1882     03FC  00C8               	movwf	DETERMINE_WAVESHAPE@ADC
  1883                           
  1884                           ;main.c: 168:     if(ADC <= 341){
  1885     03FD  3001               	movlw	1
  1886     03FE  0249               	subwf	DETERMINE_WAVESHAPE@ADC+1,w
  1887     03FF  3056               	movlw	86
  1888     0400  1903               	skipnz
  1889     0401  0248               	subwf	DETERMINE_WAVESHAPE@ADC,w
  1890     0402  1803               	skipnc
  1891     0403  2C06               	goto	l1228
  1892                           
  1893                           ;main.c: 169:             return 0;
  1894     0404  3000               	movlw	0
  1895     0405  0008               	return
  1896     0406                     l1228:
  1897                           
  1898                           ;main.c: 171:         if (ADC <= 682){
  1899     0406  3002               	movlw	2
  1900     0407  0249               	subwf	DETERMINE_WAVESHAPE@ADC+1,w
  1901     0408  30AB               	movlw	171
  1902     0409  1903               	skipnz
  1903     040A  0248               	subwf	DETERMINE_WAVESHAPE@ADC,w
  1904     040B  1803               	skipnc
  1905     040C  2C0F               	goto	l1234
  1906     040D                     l1230:
  1907                           
  1908                           ;main.c: 172:             return 1;
  1909     040D  3001               	movlw	1
  1910     040E  0008               	return
  1911     040F                     l1234:
  1912                           
  1913                           ;main.c: 174:         if (ADC <= 1023){
  1914     040F  3004               	movlw	4
  1915     0410  0249               	subwf	DETERMINE_WAVESHAPE@ADC+1,w
  1916     0411  3000               	movlw	0
  1917     0412  1903               	skipnz
  1918     0413  0248               	subwf	DETERMINE_WAVESHAPE@ADC,w
  1919     0414  1803               	skipnc
  1920     0415  2C0D               	goto	l1230
  1921                           
  1922                           ;main.c: 175:             return 2;
  1923     0416  3002               	movlw	2
  1924     0417  0008               	return
  1925     0418                     __end_of_DETERMINE_WAVESHAPE:
  1926                           
  1927                           	psect	text7
  1928     03C5                     __ptext7:	
  1929 ;; *************** function _DO_ADC *****************
  1930 ;; Defined at:
  1931 ;;		line 152 in file "main.c"
  1932 ;; Parameters:    Size  Location     Type
  1933 ;;  modifier        2    0[BANK0 ] PTR const unsigned char 
  1934 ;;		 -> symmetry_adc_config_value(1), depth_adc_config_value(1), speed_adc_config_value(1), waveshape_adc_config_value(1
      +), 
  1935 ;; Auto vars:     Size  Location     Type
  1936 ;;  adc_result      2    3[BANK0 ] unsigned short 
  1937 ;;  temp            1    5[BANK0 ] unsigned char 
  1938 ;; Return value:  Size  Location     Type
  1939 ;;                  2    0[BANK0 ] unsigned short 
  1940 ;; Registers used:
  1941 ;;		wreg, fsr0l, fsr0h, status,2, status,0, pclath
  1942 ;; Tracked objects:
  1943 ;;		On entry : 1F/0
  1944 ;;		On exit  : 1F/0
  1945 ;;		Unchanged: 0/0
  1946 ;; Data sizes:     COMMON   BANK0   BANK1   BANK2
  1947 ;;      Params:         0       2       0       0
  1948 ;;      Locals:         0       3       0       0
  1949 ;;      Temps:          0       1       0       0
  1950 ;;      Totals:         0       6       0       0
  1951 ;;Total ram usage:        6 bytes
  1952 ;; Hardware stack levels used: 1
  1953 ;; Hardware stack levels required when called: 2
  1954 ;; This function calls:
  1955 ;;		Nothing
  1956 ;; This function is called by:
  1957 ;;		_DETERMINE_WAVESHAPE
  1958 ;;		_GET_CURRENT_POT_VALUES
  1959 ;; This function uses a non-reentrant model
  1960 ;;
  1961                           
  1962     03C5                     _DO_ADC:	
  1963                           ;psect for function _DO_ADC
  1964                           
  1965                           
  1966                           ;main.c: 153:     ADCON0 = 0x00;
  1967                           
  1968                           ;incstack = 0
  1969                           ; Regs used in _DO_ADC: [wreg-fsr0h+status,2+status,0+pclath]
  1970     03C5  0021               	movlb	1	; select bank1
  1971     03C6  019D               	clrf	29	;volatile
  1972                           
  1973                           ;main.c: 155:     uint8_t temp = *modifier << 2;
  1974     03C7  0020               	movlb	0	; select bank0
  1975     03C8  0842               	movf	DO_ADC@modifier,w
  1976     03C9  0084               	movwf	4
  1977     03CA  0843               	movf	DO_ADC@modifier+1,w
  1978     03CB  0085               	movwf	5
  1979     03CC  0800               	movf	0,w	;code access
  1980     03CD  00C4               	movwf	??_DO_ADC
  1981     03CE  3001               	movlw	1
  1982     03CF                     u505:
  1983     03CF  35C4               	lslf	??_DO_ADC,f
  1984     03D0  3EFF               	addlw	-1
  1985     03D1  1D03               	skipz
  1986     03D2  2BCF               	goto	u505
  1987     03D3  3544               	lslf	??_DO_ADC,w
  1988     03D4  00C7               	movwf	DO_ADC@temp
  1989                           
  1990                           ;main.c: 156:     ADCON0 = ADCON0 | temp;
  1991     03D5  0021               	movlb	1	; select bank1
  1992     03D6  081D               	movf	29,w	;volatile
  1993     03D7  0020               	movlb	0	; select bank0
  1994     03D8  0447               	iorwf	DO_ADC@temp,w
  1995     03D9  0021               	movlb	1	; select bank1
  1996     03DA  009D               	movwf	29	;volatile
  1997                           
  1998                           ;main.c: 157:     ADON = 1;
  1999     03DB  141D               	bsf	29,0	;volatile
  2000                           
  2001                           ;main.c: 158:     _delay((unsigned long)((0.005)*(32000000/4000.0)));
  2002     03DC  300D               	movlw	13
  2003     03DD                     u657:
  2004     03DD  0B89               	decfsz	9,f
  2005     03DE  2BDD               	goto	u657
  2006     03DF  0000               	nop
  2007                           
  2008                           ;main.c: 159:     GO_nDONE = 1;
  2009     03E0  0021               	movlb	1	; select bank1
  2010     03E1  149D               	bsf	29,1	;volatile
  2011     03E2                     l140:	
  2012                           ;main.c: 160:     while(GO_nDONE == 1){}
  2013                           
  2014     03E2  189D               	btfsc	29,1	;volatile
  2015     03E3  2BE2               	goto	l140
  2016                           
  2017                           ;main.c: 161:     ADON = 0;
  2018     03E4  101D               	bcf	29,0	;volatile
  2019                           
  2020                           ;main.c: 162:     uint16_t adc_result = ((ADRESH << 8) | ADRESL);
  2021     03E5  081C               	movf	28,w	;volatile
  2022     03E6  0020               	movlb	0	; select bank0
  2023     03E7  00C6               	movwf	DO_ADC@adc_result+1
  2024     03E8  0021               	movlb	1	; select bank1
  2025     03E9  081B               	movf	27,w	;volatile
  2026     03EA  0020               	movlb	0	; select bank0
  2027     03EB  00C5               	movwf	DO_ADC@adc_result
  2028                           
  2029                           ;main.c: 163:     return adc_result;
  2030     03EC  0846               	movf	DO_ADC@adc_result+1,w
  2031     03ED  00C3               	movwf	?_DO_ADC+1
  2032     03EE  0845               	movf	DO_ADC@adc_result,w
  2033     03EF  00C2               	movwf	?_DO_ADC
  2034     03F0  0008               	return
  2035     03F1                     __end_of_DO_ADC:
  2036                           
  2037                           	psect	text8
  2038     04AD                     __ptext8:	
  2039 ;; *************** function _CONFIG_TMR0_INTERRUPT *****************
  2040 ;; Defined at:
  2041 ;;		line 226 in file "main.c"
  2042 ;; Parameters:    Size  Location     Type
  2043 ;;		None
  2044 ;; Auto vars:     Size  Location     Type
  2045 ;;		None
  2046 ;; Return value:  Size  Location     Type
  2047 ;;                  1    wreg      void 
  2048 ;; Registers used:
  2049 ;;		None
  2050 ;; Tracked objects:
  2051 ;;		On entry : B1F/1
  2052 ;;		On exit  : B1F/1
  2053 ;;		Unchanged: B1F/0
  2054 ;; Data sizes:     COMMON   BANK0   BANK1   BANK2
  2055 ;;      Params:         0       0       0       0
  2056 ;;      Locals:         0       0       0       0
  2057 ;;      Temps:          0       0       0       0
  2058 ;;      Totals:         0       0       0       0
  2059 ;;Total ram usage:        0 bytes
  2060 ;; Hardware stack levels used: 1
  2061 ;; Hardware stack levels required when called: 2
  2062 ;; This function calls:
  2063 ;;		Nothing
  2064 ;; This function is called by:
  2065 ;;		_main
  2066 ;; This function uses a non-reentrant model
  2067 ;;
  2068                           
  2069     04AD                     _CONFIG_TMR0_INTERRUPT:	
  2070                           ;psect for function _CONFIG_TMR0_INTERRUPT
  2071                           
  2072                           
  2073                           ;main.c: 227:     TMR0IE = 1;
  2074                           
  2075                           ;incstack = 0
  2076                           ; Regs used in _CONFIG_TMR0_INTERRUPT: []
  2077     04AD  168B               	bsf	11,5	;volatile
  2078     04AE  0008               	return
  2079     04AF                     __end_of_CONFIG_TMR0_INTERRUPT:
  2080                           
  2081                           	psect	text9
  2082     046F                     __ptext9:	
  2083 ;; *************** function _CONFIG_SYSTEM *****************
  2084 ;; Defined at:
  2085 ;;		line 230 in file "main.c"
  2086 ;; Parameters:    Size  Location     Type
  2087 ;;		None
  2088 ;; Auto vars:     Size  Location     Type
  2089 ;;		None
  2090 ;; Return value:  Size  Location     Type
  2091 ;;                  1    wreg      void 
  2092 ;; Registers used:
  2093 ;;		wreg, status,2, status,0, pclath, cstack
  2094 ;; Tracked objects:
  2095 ;;		On entry : B1F/0
  2096 ;;		On exit  : B1F/0
  2097 ;;		Unchanged: B00/0
  2098 ;; Data sizes:     COMMON   BANK0   BANK1   BANK2
  2099 ;;      Params:         0       0       0       0
  2100 ;;      Locals:         0       0       0       0
  2101 ;;      Temps:          0       0       0       0
  2102 ;;      Totals:         0       0       0       0
  2103 ;;Total ram usage:        0 bytes
  2104 ;; Hardware stack levels used: 1
  2105 ;; Hardware stack levels required when called: 3
  2106 ;; This function calls:
  2107 ;;		_CONFIG_ADC_PINS
  2108 ;;		_CONFIG_INT_OSC
  2109 ;;		_CONFIG_PORTS
  2110 ;;		_CONFIG_PWM_CCP3
  2111 ;; This function is called by:
  2112 ;;		_main
  2113 ;; This function uses a non-reentrant model
  2114 ;;
  2115                           
  2116     046F                     _CONFIG_SYSTEM:	
  2117                           ;psect for function _CONFIG_SYSTEM
  2118                           
  2119                           
  2120                           ;main.c: 231:     CONFIG_INT_OSC();
  2121                           
  2122                           ;incstack = 0
  2123                           ; Regs used in _CONFIG_SYSTEM: [wreg+status,2+status,0+pclath+cstack]
  2124     046F  3184  24A1  3184   	fcall	_CONFIG_INT_OSC
  2125                           
  2126                           ;main.c: 232:     CONFIG_PORTS();
  2127     0472  3184  247B  3184   	fcall	_CONFIG_PORTS
  2128                           
  2129                           ;main.c: 233:     CONFIG_ADC_PINS();
  2130     0475  3184  24A7  3184   	fcall	_CONFIG_ADC_PINS
  2131                           
  2132                           ;main.c: 234:     CONFIG_PWM_CCP3();
  2133     0478  3184  245C         	fcall	_CONFIG_PWM_CCP3
  2134     047A  0008               	return
  2135     047B                     __end_of_CONFIG_SYSTEM:
  2136                           
  2137                           	psect	text10
  2138     045C                     __ptext10:	
  2139 ;; *************** function _CONFIG_PWM_CCP3 *****************
  2140 ;; Defined at:
  2141 ;;		line 197 in file "main.c"
  2142 ;; Parameters:    Size  Location     Type
  2143 ;;		None
  2144 ;; Auto vars:     Size  Location     Type
  2145 ;;		None
  2146 ;; Return value:  Size  Location     Type
  2147 ;;                  1    wreg      void 
  2148 ;; Registers used:
  2149 ;;		wreg, status,2
  2150 ;; Tracked objects:
  2151 ;;		On entry : B1F/1
  2152 ;;		On exit  : B1F/0
  2153 ;;		Unchanged: B00/0
  2154 ;; Data sizes:     COMMON   BANK0   BANK1   BANK2
  2155 ;;      Params:         0       0       0       0
  2156 ;;      Locals:         0       0       0       0
  2157 ;;      Temps:          0       0       0       0
  2158 ;;      Totals:         0       0       0       0
  2159 ;;Total ram usage:        0 bytes
  2160 ;; Hardware stack levels used: 1
  2161 ;; Hardware stack levels required when called: 2
  2162 ;; This function calls:
  2163 ;;		Nothing
  2164 ;; This function is called by:
  2165 ;;		_CONFIG_SYSTEM
  2166 ;; This function uses a non-reentrant model
  2167 ;;
  2168                           
  2169     045C                     _CONFIG_PWM_CCP3:	
  2170                           ;psect for function _CONFIG_PWM_CCP3
  2171                           
  2172                           
  2173                           ;main.c: 198:     SRLEN = 0;
  2174                           
  2175                           ;incstack = 0
  2176                           ; Regs used in _CONFIG_PWM_CCP3: [wreg+status,2]
  2177     045C  0022               	movlb	2	; select bank2
  2178     045D  139A               	bcf	26,7	;volatile
  2179                           
  2180                           ;main.c: 199:     C1ON = 0;
  2181     045E  1391               	bcf	17,7	;volatile
  2182                           
  2183                           ;main.c: 201:     TRISA2 = 1;
  2184     045F  0021               	movlb	1	; select bank1
  2185     0460  150C               	bsf	12,2	;volatile
  2186                           
  2187                           ;main.c: 202:     PR2 = 0xFF;
  2188     0461  30FF               	movlw	255
  2189     0462  0020               	movlb	0	; select bank0
  2190     0463  009B               	movwf	27	;volatile
  2191                           
  2192                           ;main.c: 203:     CCP3CON = CCP3CON | 0b00001111;
  2193     0464  0026               	movlb	6	; select bank6
  2194     0465  0813               	movf	19,w	;volatile
  2195     0466  380F               	iorlw	15
  2196     0467  0093               	movwf	19	;volatile
  2197                           
  2198                           ;main.c: 205:     CCPTMRS0 = 0x00;
  2199     0468  0025               	movlb	5	; select bank5
  2200     0469  019E               	clrf	30	;volatile
  2201                           
  2202                           ;main.c: 206:     TMR2IF = 0;
  2203     046A  0020               	movlb	0	; select bank0
  2204     046B  1091               	bcf	17,1	;volatile
  2205                           
  2206                           ;main.c: 207:     T2CON = T2CON | 0b00000000;
  2207     046C  081C               	movf	28,w	;volatile
  2208     046D  009C               	movwf	28	;volatile
  2209     046E  0008               	return
  2210     046F                     __end_of_CONFIG_PWM_CCP3:
  2211                           
  2212                           	psect	text11
  2213     047B                     __ptext11:	
  2214 ;; *************** function _CONFIG_PORTS *****************
  2215 ;; Defined at:
  2216 ;;		line 142 in file "main.c"
  2217 ;; Parameters:    Size  Location     Type
  2218 ;;		None
  2219 ;; Auto vars:     Size  Location     Type
  2220 ;;		None
  2221 ;; Return value:  Size  Location     Type
  2222 ;;                  1    wreg      void 
  2223 ;; Registers used:
  2224 ;;		wreg, status,2
  2225 ;; Tracked objects:
  2226 ;;		On entry : B1F/1
  2227 ;;		On exit  : B1F/4
  2228 ;;		Unchanged: B00/0
  2229 ;; Data sizes:     COMMON   BANK0   BANK1   BANK2
  2230 ;;      Params:         0       0       0       0
  2231 ;;      Locals:         0       0       0       0
  2232 ;;      Temps:          0       0       0       0
  2233 ;;      Totals:         0       0       0       0
  2234 ;;Total ram usage:        0 bytes
  2235 ;; Hardware stack levels used: 1
  2236 ;; Hardware stack levels required when called: 2
  2237 ;; This function calls:
  2238 ;;		Nothing
  2239 ;; This function is called by:
  2240 ;;		_CONFIG_SYSTEM
  2241 ;; This function uses a non-reentrant model
  2242 ;;
  2243                           
  2244     047B                     _CONFIG_PORTS:	
  2245                           ;psect for function _CONFIG_PORTS
  2246                           
  2247                           
  2248                           ;main.c: 143:     ANSELC = 0b00001111;
  2249                           
  2250                           ;incstack = 0
  2251                           ; Regs used in _CONFIG_PORTS: [wreg+status,2]
  2252     047B  300F               	movlw	15
  2253     047C  0023               	movlb	3	; select bank3
  2254     047D  008E               	movwf	14	;volatile
  2255                           
  2256                           ;main.c: 144:     TRISC = 0b00001111;
  2257     047E  300F               	movlw	15
  2258     047F  0021               	movlb	1	; select bank1
  2259     0480  008E               	movwf	14	;volatile
  2260                           
  2261                           ;main.c: 145:     WPUC = 0b00000000;
  2262     0481  0024               	movlb	4	; select bank4
  2263     0482  018E               	clrf	14	;volatile
  2264     0483  0008               	return
  2265     0484                     __end_of_CONFIG_PORTS:
  2266                           
  2267                           	psect	text12
  2268     04A1                     __ptext12:	
  2269 ;; *************** function _CONFIG_INT_OSC *****************
  2270 ;; Defined at:
  2271 ;;		line 136 in file "main.c"
  2272 ;; Parameters:    Size  Location     Type
  2273 ;;		None
  2274 ;; Auto vars:     Size  Location     Type
  2275 ;;		None
  2276 ;; Return value:  Size  Location     Type
  2277 ;;                  1    wreg      void 
  2278 ;; Registers used:
  2279 ;;		wreg
  2280 ;; Tracked objects:
  2281 ;;		On entry : B1F/0
  2282 ;;		On exit  : B1F/1
  2283 ;;		Unchanged: B00/0
  2284 ;; Data sizes:     COMMON   BANK0   BANK1   BANK2
  2285 ;;      Params:         0       0       0       0
  2286 ;;      Locals:         0       0       0       0
  2287 ;;      Temps:          0       0       0       0
  2288 ;;      Totals:         0       0       0       0
  2289 ;;Total ram usage:        0 bytes
  2290 ;; Hardware stack levels used: 1
  2291 ;; Hardware stack levels required when called: 2
  2292 ;; This function calls:
  2293 ;;		Nothing
  2294 ;; This function is called by:
  2295 ;;		_CONFIG_SYSTEM
  2296 ;; This function uses a non-reentrant model
  2297 ;;
  2298                           
  2299     04A1                     _CONFIG_INT_OSC:	
  2300                           ;psect for function _CONFIG_INT_OSC
  2301                           
  2302                           
  2303                           ;main.c: 137:     OSCCON = 0b11110000;
  2304                           
  2305                           ;incstack = 0
  2306                           ; Regs used in _CONFIG_INT_OSC: [wreg]
  2307     04A1  30F0               	movlw	240
  2308     04A2  0021               	movlb	1	; select bank1
  2309     04A3  0099               	movwf	25	;volatile
  2310                           
  2311                           ;main.c: 138:     OSCTUNE = 0b00011111;
  2312     04A4  301F               	movlw	31
  2313     04A5  0098               	movwf	24	;volatile
  2314     04A6  0008               	return
  2315     04A7                     __end_of_CONFIG_INT_OSC:
  2316                           
  2317                           	psect	text13
  2318     04A7                     __ptext13:	
  2319 ;; *************** function _CONFIG_ADC_PINS *****************
  2320 ;; Defined at:
  2321 ;;		line 148 in file "main.c"
  2322 ;; Parameters:    Size  Location     Type
  2323 ;;		None
  2324 ;; Auto vars:     Size  Location     Type
  2325 ;;		None
  2326 ;; Return value:  Size  Location     Type
  2327 ;;                  1    wreg      void 
  2328 ;; Registers used:
  2329 ;;		wreg
  2330 ;; Tracked objects:
  2331 ;;		On entry : B1F/4
  2332 ;;		On exit  : B1F/1
  2333 ;;		Unchanged: B00/0
  2334 ;; Data sizes:     COMMON   BANK0   BANK1   BANK2
  2335 ;;      Params:         0       0       0       0
  2336 ;;      Locals:         0       0       0       0
  2337 ;;      Temps:          0       0       0       0
  2338 ;;      Totals:         0       0       0       0
  2339 ;;Total ram usage:        0 bytes
  2340 ;; Hardware stack levels used: 1
  2341 ;; Hardware stack levels required when called: 2
  2342 ;; This function calls:
  2343 ;;		Nothing
  2344 ;; This function is called by:
  2345 ;;		_CONFIG_SYSTEM
  2346 ;; This function uses a non-reentrant model
  2347 ;;
  2348                           
  2349     04A7                     _CONFIG_ADC_PINS:	
  2350                           ;psect for function _CONFIG_ADC_PINS
  2351                           
  2352                           
  2353                           ;main.c: 149:     ADCON1 = 0b10100000;
  2354                           
  2355                           ;incstack = 0
  2356                           ; Regs used in _CONFIG_ADC_PINS: [wreg]
  2357     04A7  30A0               	movlw	160
  2358     04A8  0021               	movlb	1	; select bank1
  2359     04A9  009E               	movwf	30	;volatile
  2360     04AA  0008               	return
  2361     04AB                     __end_of_CONFIG_ADC_PINS:
  2362                           
  2363                           	psect	intentry
  2364     0004                     __pintentry:	
  2365 ;; *************** function _INTERRUPT_InterruptManager *****************
  2366 ;; Defined at:
  2367 ;;		line 366 in file "main.c"
  2368 ;; Parameters:    Size  Location     Type
  2369 ;;		None
  2370 ;; Auto vars:     Size  Location     Type
  2371 ;;		None
  2372 ;; Return value:  Size  Location     Type
  2373 ;;                  1    wreg      void 
  2374 ;; Registers used:
  2375 ;;		wreg, fsr0l, fsr0h, fsr1l, fsr1h, status,2, status,0, pclath, cstack
  2376 ;; Tracked objects:
  2377 ;;		On entry : 0/0
  2378 ;;		On exit  : 0/0
  2379 ;;		Unchanged: 0/0
  2380 ;; Data sizes:     COMMON   BANK0   BANK1   BANK2
  2381 ;;      Params:         0       0       0       0
  2382 ;;      Locals:         0       0       0       0
  2383 ;;      Temps:          2       0       0       0
  2384 ;;      Totals:         2       0       0       0
  2385 ;;Total ram usage:        2 bytes
  2386 ;; Hardware stack levels used: 1
  2387 ;; Hardware stack levels required when called: 1
  2388 ;; This function calls:
  2389 ;;		_SET_DUTY_CCP3
  2390 ;; This function is called by:
  2391 ;;		Interrupt level 1
  2392 ;; This function uses a non-reentrant model
  2393 ;;
  2394                           
  2395     0004                     _INTERRUPT_InterruptManager:
  2396                           
  2397                           ;incstack = 0
  2398     0004  147E               	bsf	126,0	;set compiler interrupt flag (level 1)
  2399                           
  2400                           ; Regs used in _INTERRUPT_InterruptManager: [wreg-fsr1h+status,2+status,0+pclath+cstack]
  2401     0005  3180               	pagesel	$
  2402                           
  2403                           ;main.c: 367:     if(TMR0IF == 1){
  2404     0006  1D0B               	btfss	11,2	;volatile
  2405     0007  28CE               	goto	i1l234
  2406                           
  2407                           ;main.c: 368:     GIE = 0;
  2408     0008  138B               	bcf	11,7	;volatile
  2409                           
  2410                           ;main.c: 370:     TMR0 = raw_TMR0;
  2411     0009  0875               	movf	_raw_TMR0,w	;volatile
  2412     000A  0020               	movlb	0	; select bank0
  2413     000B  0095               	movwf	21	;volatile
  2414                           
  2415                           ;main.c: 372:     LATC5 = 1;
  2416     000C  0022               	movlb	2	; select bank2
  2417     000D  168E               	bsf	14,5	;volatile
  2418                           
  2419                           ;main.c: 373:     TMR0IF = 0;
  2420     000E  110B               	bcf	11,2	;volatile
  2421                           
  2422                           ;main.c: 375:             if(current_waveshape == 0){
  2423     000F  0872               	movf	_current_waveshape,w	;volatile
  2424     0010  1D03               	btfss	3,2
  2425     0011  2822               	goto	i1l1134
  2426                           
  2427                           ;main.c: 376:                 duty = tri_table_one_quadrant[current_one_quadrant_index];
  2428     0012  0871               	movf	_current_one_quadrant_index,w	;volatile
  2429     0013  00FA               	movwf	??_INTERRUPT_InterruptManager
  2430     0014  01FB               	clrf	??_INTERRUPT_InterruptManager+1
  2431     0015  35FA               	lslf	??_INTERRUPT_InterruptManager,f
  2432     0016  0DFB               	rlf	??_INTERRUPT_InterruptManager+1,f
  2433     0017  30EB               	movlw	low _tri_table_one_quadrant
  2434     0018  077A               	addwf	??_INTERRUPT_InterruptManager,w
  2435     0019  0084               	movwf	4
  2436     001A  3000               	movlw	high _tri_table_one_quadrant
  2437     001B  3D7B               	addwfc	??_INTERRUPT_InterruptManager+1,w
  2438     001C  3880               	iorlw	128
  2439     001D  0085               	movwf	5
  2440     001E  3F00               	moviw [0]fsr0
  2441     001F  00F3               	movwf	_duty	;volatile
  2442     0020  3F01               	moviw [1]fsr0
  2443     0021  283C               	goto	L1
  2444     0022                     i1l1134:	
  2445                           ;main.c: 377:             }
  2446                           
  2447     0022  0372               	decf	_current_waveshape,w	;volatile
  2448     0023  1D03               	btfss	3,2
  2449     0024  2835               	goto	i1l1138
  2450                           
  2451                           ;main.c: 379:                 duty = sine_table_one_quadrant[current_one_quadrant_index]
      +                          ;
  2452     0025  0871               	movf	_current_one_quadrant_index,w	;volatile
  2453     0026  00FA               	movwf	??_INTERRUPT_InterruptManager
  2454     0027  01FB               	clrf	??_INTERRUPT_InterruptManager+1
  2455     0028  35FA               	lslf	??_INTERRUPT_InterruptManager,f
  2456     0029  0DFB               	rlf	??_INTERRUPT_InterruptManager+1,f
  2457     002A  30ED               	movlw	low _sine_table_one_quadrant
  2458     002B  077A               	addwf	??_INTERRUPT_InterruptManager,w
  2459     002C  0084               	movwf	4
  2460     002D  3001               	movlw	high _sine_table_one_quadrant
  2461     002E  3D7B               	addwfc	??_INTERRUPT_InterruptManager+1,w
  2462     002F  3880               	iorlw	128
  2463     0030  0085               	movwf	5
  2464     0031  3F00               	moviw [0]fsr0
  2465     0032  00F3               	movwf	_duty	;volatile
  2466     0033  3F01               	moviw [1]fsr0
  2467     0034  283C               	goto	L1
  2468     0035                     i1l1138:	
  2469                           ;main.c: 380:             }
  2470                           
  2471     0035  3002               	movlw	2
  2472     0036  0672               	xorwf	_current_waveshape,w	;volatile
  2473     0037  1D03               	btfss	3,2
  2474     0038  283D               	goto	i1l1142
  2475                           
  2476                           ;main.c: 382:                 duty = 1023;
  2477     0039  30FF               	movlw	255
  2478     003A  00F3               	movwf	_duty	;volatile
  2479     003B  3003               	movlw	3
  2480     003C                     L1:
  2481     003C  00F4               	movwf	_duty+1	;volatile
  2482     003D                     i1l1142:
  2483                           
  2484                           ;main.c: 384:             if(current_one_quadrant_index == 128){
  2485     003D  3080               	movlw	128
  2486     003E  0671               	xorwf	_current_one_quadrant_index,w	;volatile
  2487     003F  1D03               	btfss	3,2
  2488     0040  2844               	goto	i1l1146
  2489                           
  2490                           ;main.c: 385:                 current_quadrant = 1;
  2491     0041  3001               	movlw	1
  2492     0042  0020               	movlb	0	; select bank0
  2493     0043  00BE               	movwf	_current_quadrant	;volatile
  2494     0044                     i1l1146:
  2495                           
  2496                           ;main.c: 387:             if(current_one_quadrant_index == 0){
  2497     0044  0871               	movf	_current_one_quadrant_index,w	;volatile
  2498     0045  1D03               	btfss	3,2
  2499     0046  2850               	goto	i1l1156
  2500                           
  2501                           ;main.c: 388:                 current_quadrant = 0;
  2502     0047  0020               	movlb	0	; select bank0
  2503     0048  01BE               	clrf	_current_quadrant	;volatile
  2504                           
  2505                           ;main.c: 389:                 if(current_halfcycle == 0){
  2506     0049  0870               	movf	_current_halfcycle,w	;volatile
  2507     004A  1D03               	btfss	3,2
  2508     004B  284F               	goto	i1l1154
  2509                           
  2510                           ;main.c: 390:                     current_halfcycle = 1;
  2511     004C  3001               	movlw	1
  2512     004D  00F0               	movwf	_current_halfcycle	;volatile
  2513                           
  2514                           ;main.c: 391:                 }
  2515     004E  2850               	goto	i1l1156
  2516     004F                     i1l1154:
  2517                           
  2518                           ;main.c: 393:                     current_halfcycle = 0;
  2519     004F  01F0               	clrf	_current_halfcycle	;volatile
  2520     0050                     i1l1156:
  2521                           
  2522                           ;main.c: 396:             if(current_quadrant == 0){
  2523     0050  0020               	movlb	0	; select bank0
  2524     0051  083E               	movf	_current_quadrant,w	;volatile
  2525     0052  1D03               	btfss	3,2
  2526     0053  2859               	goto	i1l1160
  2527                           
  2528                           ;main.c: 397:                 current_one_quadrant_index++;
  2529     0054  3001               	movlw	1
  2530     0055  00FA               	movwf	??_INTERRUPT_InterruptManager
  2531     0056  087A               	movf	??_INTERRUPT_InterruptManager,w
  2532     0057  07F1               	addwf	_current_one_quadrant_index,f	;volatile
  2533                           
  2534                           ;main.c: 398:             }
  2535     0058  285B               	goto	i1l230
  2536     0059                     i1l1160:
  2537                           
  2538                           ;main.c: 400:                 current_one_quadrant_index--;
  2539     0059  3001               	movlw	1
  2540     005A  02F1               	subwf	_current_one_quadrant_index,f	;volatile
  2541     005B                     i1l230:	
  2542                           ;main.c: 401:             }
  2543                           
  2544                           
  2545                           ;main.c: 402:             if(current_halfcycle == 1){
  2546     005B  0370               	decf	_current_halfcycle,w	;volatile
  2547     005C  1D03               	btfss	3,2
  2548     005D  2868               	goto	i1l231
  2549                           
  2550                           ;main.c: 403:             duty = 1023 - duty;
  2551     005E  30FF               	movlw	255
  2552     005F  00FA               	movwf	??_INTERRUPT_InterruptManager
  2553     0060  3003               	movlw	3
  2554     0061  00FB               	movwf	??_INTERRUPT_InterruptManager+1
  2555     0062  0873               	movf	_duty,w	;volatile
  2556     0063  027A               	subwf	??_INTERRUPT_InterruptManager,w
  2557     0064  00F3               	movwf	_duty	;volatile
  2558     0065  0874               	movf	_duty+1,w	;volatile
  2559     0066  3B7B               	subwfb	??_INTERRUPT_InterruptManager+1,w
  2560     0067  00F4               	movwf	_duty+1	;volatile
  2561     0068                     i1l231:	
  2562                           ;main.c: 404:             }
  2563                           
  2564                           
  2565                           ;main.c: 407:     if(current_depth != 0){
  2566     0068  082E               	movf	_current_depth,w	;volatile
  2567     0069  042F               	iorwf	_current_depth+1,w	;volatile
  2568     006A  1903               	btfsc	3,2
  2569     006B  28C4               	goto	i1l1168
  2570                           
  2571                           ;main.c: 408:         duty_low_byte = duty & 0xFF;
  2572     006C  0873               	movf	_duty,w	;volatile
  2573     006D  00C0               	movwf	_duty_low_byte	;volatile
  2574                           
  2575                           ;main.c: 409:         duty_high_byte = duty >> 8;
  2576     006E  0874               	movf	_duty+1,w	;volatile
  2577     006F  00BF               	movwf	_duty_high_byte	;volatile
  2578     0070  01A2               	clrf	34	;# 
  2579     0071  01A0               	clrf	32	;# 
  2580     0072  1003               	bcf	3,0	;# 
  2581     0073  082E               	movf	_current_depth,w	;# 
  2582     0074  1840               	btfsc	_duty_low_byte,0	;# 
  2583     0075  07A2               	addwf	34,f	;# 
  2584     0076  0CA2               	rrf	34,f	;# 
  2585     0077  0CA0               	rrf	32,f	;# 
  2586     0078  18C0               	btfsc	_duty_low_byte,1	;# 
  2587     0079  07A2               	addwf	34,f	;# 
  2588     007A  0CA2               	rrf	34,f	;# 
  2589     007B  0CA0               	rrf	32,f	;# 
  2590     007C  1940               	btfsc	_duty_low_byte,2	;# 
  2591     007D  07A2               	addwf	34,f	;# 
  2592     007E  0CA2               	rrf	34,f	;# 
  2593     007F  0CA0               	rrf	32,f	;# 
  2594     0080  19C0               	btfsc	_duty_low_byte,3	;# 
  2595     0081  07A2               	addwf	34,f	;# 
  2596     0082  0CA2               	rrf	34,f	;# 
  2597     0083  0CA0               	rrf	32,f	;# 
  2598     0084  1A40               	btfsc	_duty_low_byte,4	;# 
  2599     0085  07A2               	addwf	34,f	;# 
  2600     0086  0CA2               	rrf	34,f	;# 
  2601     0087  0CA0               	rrf	32,f	;# 
  2602     0088  1AC0               	btfsc	_duty_low_byte,5	;# 
  2603     0089  07A2               	addwf	34,f	;# 
  2604     008A  0CA2               	rrf	34,f	;# 
  2605     008B  0CA0               	rrf	32,f	;# 
  2606     008C  1B40               	btfsc	_duty_low_byte,6	;# 
  2607     008D  07A2               	addwf	34,f	;# 
  2608     008E  0CA2               	rrf	34,f	;# 
  2609     008F  0CA0               	rrf	32,f	;# 
  2610     0090  1BC0               	btfsc	_duty_low_byte,7	;# 
  2611     0091  07A2               	addwf	34,f	;# 
  2612     0092  0CA2               	rrf	34,f	;# 
  2613     0093  0CA0               	rrf	32,f	;# 
  2614     0094  01A1               	clrf	33	;# 
  2615     0095  183F               	btfsc	_duty_high_byte,0	;# 
  2616     0096  07A2               	addwf	34,f	;# 
  2617     0097  0CA2               	rrf	34,f	;# 
  2618     0098  0CA1               	rrf	33,f	;# 
  2619     0099  18BF               	btfsc	_duty_high_byte,1	;# 
  2620     009A  07A2               	addwf	34,f	;# 
  2621     009B  0CA2               	rrf	34,f	;# 
  2622     009C  0CA1               	rrf	33,f	;# 
  2623     009D  193F               	btfsc	_duty_high_byte,2	;# 
  2624     009E  07A2               	addwf	34,f	;# 
  2625     009F  0CA2               	rrf	34,f	;# 
  2626     00A0  0CA1               	rrf	33,f	;# 
  2627     00A1  19BF               	btfsc	_duty_high_byte,3	;# 
  2628     00A2  07A2               	addwf	34,f	;# 
  2629     00A3  0CA2               	rrf	34,f	;# 
  2630     00A4  0CA1               	rrf	33,f	;# 
  2631     00A5  1A3F               	btfsc	_duty_high_byte,4	;# 
  2632     00A6  07A2               	addwf	34,f	;# 
  2633     00A7  0CA2               	rrf	34,f	;# 
  2634     00A8  0CA1               	rrf	33,f	;# 
  2635     00A9  1ABF               	btfsc	_duty_high_byte,5	;# 
  2636     00AA  07A2               	addwf	34,f	;# 
  2637     00AB  0CA2               	rrf	34,f	;# 
  2638     00AC  0CA1               	rrf	33,f	;# 
  2639     00AD  1B3F               	btfsc	_duty_high_byte,6	;# 
  2640     00AE  07A2               	addwf	34,f	;# 
  2641     00AF  0CA2               	rrf	34,f	;# 
  2642     00B0  0CA1               	rrf	33,f	;# 
  2643     00B1  1BBF               	btfsc	_duty_high_byte,7	;# 
  2644     00B2  07A2               	addwf	34,f	;# 
  2645     00B3  0CA2               	rrf	34,f	;# 
  2646     00B4  0CA1               	rrf	33,f	;# 
  2647                           
  2648                           ;main.c: 444:         duty = 1023 - *top_two_bytes_ptr;
  2649     00B5  0020               	movlb	0	; select bank0
  2650     00B6  0853               	movf	_top_two_bytes_ptr,w
  2651     00B7  0086               	movwf	6
  2652     00B8  0854               	movf	_top_two_bytes_ptr+1,w
  2653     00B9  0087               	movwf	7
  2654     00BA  30FF               	movlw	255
  2655     00BB  00FA               	movwf	??_INTERRUPT_InterruptManager
  2656     00BC  3003               	movlw	3
  2657     00BD  00FB               	movwf	??_INTERRUPT_InterruptManager+1
  2658     00BE  3F40               	moviw [0]fsr1
  2659     00BF  027A               	subwf	??_INTERRUPT_InterruptManager,w
  2660     00C0  00F3               	movwf	_duty	;volatile
  2661     00C1  3F41               	moviw [1]fsr1
  2662     00C2  3B7B               	subwfb	??_INTERRUPT_InterruptManager+1,w
  2663     00C3  28C7               	goto	L2
  2664     00C4                     i1l1168:	
  2665                           ;main.c: 445:     }
  2666                           
  2667                           
  2668                           ;main.c: 447:         duty = 1023;
  2669     00C4  30FF               	movlw	255
  2670     00C5  00F3               	movwf	_duty	;volatile
  2671     00C6  3003               	movlw	3
  2672     00C7                     L2:
  2673     00C7  00F4               	movwf	_duty+1	;volatile
  2674                           
  2675                           ;main.c: 451:     SET_DUTY_CCP3(&duty);
  2676     00C8  3073               	movlw	(low (_duty| 0))& (0+255)
  2677     00C9  3184  243C         	fcall	_SET_DUTY_CCP3
  2678                           
  2679                           ;main.c: 454:     LATC5 = 0;
  2680     00CB  0022               	movlb	2	; select bank2
  2681     00CC  128E               	bcf	14,5	;volatile
  2682                           
  2683                           ;main.c: 455:     GIE = 1;
  2684     00CD  178B               	bsf	11,7	;volatile
  2685     00CE                     i1l234:
  2686     00CE  107E               	bcf	126,0	;clear compiler interrupt flag (level 1)
  2687     00CF  0009               	retfie
  2688     00D0                     __end_of_INTERRUPT_InterruptManager:
  2689                           
  2690                           	psect	text15
  2691     043C                     __ptext15:	
  2692 ;; *************** function _SET_DUTY_CCP3 *****************
  2693 ;; Defined at:
  2694 ;;		line 188 in file "main.c"
  2695 ;; Parameters:    Size  Location     Type
  2696 ;;  duty_ptr        1    wreg     PTR volatile unsigned sh
  2697 ;;		 -> duty(2), 
  2698 ;; Auto vars:     Size  Location     Type
  2699 ;;  duty_ptr        1    3[COMMON] PTR volatile unsigned sh
  2700 ;;		 -> duty(2), 
  2701 ;;  temp            1    2[COMMON] unsigned char 
  2702 ;; Return value:  Size  Location     Type
  2703 ;;                  1    wreg      void 
  2704 ;; Registers used:
  2705 ;;		wreg, fsr1l, fsr1h, status,2, status,0
  2706 ;; Tracked objects:
  2707 ;;		On entry : 1F/0
  2708 ;;		On exit  : 1F/6
  2709 ;;		Unchanged: 0/0
  2710 ;; Data sizes:     COMMON   BANK0   BANK1   BANK2
  2711 ;;      Params:         0       0       0       0
  2712 ;;      Locals:         2       0       0       0
  2713 ;;      Temps:          2       0       0       0
  2714 ;;      Totals:         4       0       0       0
  2715 ;;Total ram usage:        4 bytes
  2716 ;; Hardware stack levels used: 1
  2717 ;; This function calls:
  2718 ;;		Nothing
  2719 ;; This function is called by:
  2720 ;;		_INTERRUPT_InterruptManager
  2721 ;; This function uses a non-reentrant model
  2722 ;;
  2723                           
  2724     043C                     _SET_DUTY_CCP3:	
  2725                           ;psect for function _SET_DUTY_CCP3
  2726                           
  2727                           
  2728                           ;incstack = 0
  2729                           ; Regs used in _SET_DUTY_CCP3: [wreg+fsr1l+fsr1h+status,2+status,0]
  2730                           ;SET_DUTY_CCP3@duty_ptr stored from wreg
  2731     043C  00F9               	movwf	SET_DUTY_CCP3@duty_ptr
  2732                           
  2733                           ;main.c: 190:     CCPR3L = *duty_ptr >> 2;
  2734     043D  0879               	movf	SET_DUTY_CCP3@duty_ptr,w
  2735     043E  0086               	movwf	6
  2736     043F  0187               	clrf	7
  2737     0440  3F40               	moviw [0]fsr1
  2738     0441  00F6               	movwf	??_SET_DUTY_CCP3
  2739     0442  3F41               	moviw [1]fsr1
  2740     0443  00F7               	movwf	??_SET_DUTY_CCP3+1
  2741     0444  36F7               	lsrf	??_SET_DUTY_CCP3+1,f
  2742     0445  0CF6               	rrf	??_SET_DUTY_CCP3,f
  2743     0446  36F7               	lsrf	??_SET_DUTY_CCP3+1,f
  2744     0447  0CF6               	rrf	??_SET_DUTY_CCP3,f
  2745     0448  0876               	movf	??_SET_DUTY_CCP3,w
  2746     0449  0026               	movlb	6	; select bank6
  2747     044A  0091               	movwf	17	;volatile
  2748                           
  2749                           ;main.c: 191:     uint8_t temp = *duty_ptr % 0b100;
  2750     044B  0879               	movf	SET_DUTY_CCP3@duty_ptr,w
  2751     044C  0086               	movwf	6
  2752     044D  0187               	clrf	7
  2753     044E  0801               	movf	1,w
  2754     044F  3903               	andlw	3
  2755     0450  00F8               	movwf	SET_DUTY_CCP3@temp
  2756                           
  2757                           ;main.c: 192:     CCP3CON = CCP3CON | (temp << 4);
  2758     0451  0878               	movf	SET_DUTY_CCP3@temp,w
  2759     0452  00F6               	movwf	??_SET_DUTY_CCP3
  2760     0453  3003               	movlw	3
  2761     0454                     u35_25:
  2762     0454  35F6               	lslf	??_SET_DUTY_CCP3,f
  2763     0455  3EFF               	addlw	-1
  2764     0456  1D03               	skipz
  2765     0457  2C54               	goto	u35_25
  2766     0458  3576               	lslf	??_SET_DUTY_CCP3,w
  2767     0459  0413               	iorwf	19,w	;volatile
  2768     045A  0093               	movwf	19	;volatile
  2769     045B  0008               	return
  2770     045C                     __end_of_SET_DUTY_CCP3:
  2771     007E                     btemp	set	126	;btemp
  2772     007E                     int$flags	set	126
  2773     007E                     wtemp0	set	126
  2774                           
  2775                           	psect	config
  2776                           
  2777                           ;Config register CONFIG1 @ 0x8007
  2778                           ;	Oscillator Selection
  2779                           ;	FOSC = INTOSC, INTOSC oscillator: I/O function on CLKIN pin
  2780                           ;	Watchdog Timer Enable
  2781                           ;	WDTE = OFF, WDT disabled
  2782                           ;	Power-up Timer Enable
  2783                           ;	PWRTE = OFF, PWRT disabled
  2784                           ;	MCLR Pin Function Select
  2785                           ;	MCLRE = ON, MCLR/VPP pin function is MCLR
  2786                           ;	Flash Program Memory Code Protection
  2787                           ;	CP = OFF, Program memory code protection is disabled
  2788                           ;	Data Memory Code Protection
  2789                           ;	CPD = OFF, Data memory code protection is disabled
  2790                           ;	Brown-out Reset Enable
  2791                           ;	BOREN = OFF, Brown-out Reset disabled
  2792                           ;	Clock Out Enable
  2793                           ;	CLKOUTEN = OFF, CLKOUT function is disabled. I/O or oscillator function on the CLKOUT 
      +                          pin
  2794                           ;	Internal/External Switchover
  2795                           ;	IESO = OFF, Internal/External Switchover mode is disabled
  2796                           ;	Fail-Safe Clock Monitor Enable
  2797                           ;	FCMEN = OFF, Fail-Safe Clock Monitor is disabled
  2798     8007                     	org	32775
  2799     8007  09E4               	dw	2532
  2800                           
  2801                           ;Config register CONFIG2 @ 0x8008
  2802                           ;	Flash Memory Self-Write Protection
  2803                           ;	WRT = OFF, Write protection off
  2804                           ;	PLL Enable
  2805                           ;	PLLEN = ON, 4x PLL enabled
  2806                           ;	Stack Overflow/Underflow Reset Enable
  2807                           ;	STVREN = ON, Stack Overflow or Underflow will cause a Reset
  2808                           ;	Brown-out Reset Voltage Selection
  2809                           ;	BORV = LO, Brown-out Reset Voltage (Vbor), low trip point selected.
  2810                           ;	In-Circuit Debugger Mode
  2811                           ;	DEBUG = ON, In-Circuit Debugger enabled, ICSPCLK and ICSPDAT are dedicated to the debu
      +                          gger
  2812                           ;	Low-Voltage Programming Enable
  2813                           ;	LVP = OFF, High-voltage on MCLR/VPP must be used for programming
  2814     8008                     	org	32776
  2815     8008  0FFF               	dw	4095

Data Sizes:
    Strings     0
    Constant    533
    Data        2
    BSS         40
    Persistent  32
    Stack       0

Auto Spaces:
    Space          Size  Autos    Used
    COMMON           14      6      12
    BANK0            80     17      53
    BANK1            80      0       0
    BANK2            64      0       0

Pointer List with Targets:

    DO_ADC@modifier	PTR const unsigned char  size(2) Largest target is 1
		 -> depth_adc_config_value(CODE[1]), speed_adc_config_value(CODE[1]), symmetry_adc_config_value(CODE[1]), waveshape_adc_config_value(CODE[1]), 

    SET_DUTY_CCP3@duty_ptr	PTR volatile unsigned short  size(1) Largest target is 2
		 -> duty(COMMON[2]), 

    TMR0_WRITE@timer_value_ptr	PTR volatile unsigned char  size(1) Largest target is 1
		 -> raw_TMR0(COMMON[1]), 

    top_two_bytes_ptr	PTR unsigned short  size(2) Largest target is 4096
		 -> RAM(DATA[4096]), 


Critical Paths under _main in COMMON

    None.

Critical Paths under _INTERRUPT_InterruptManager in COMMON

    _INTERRUPT_InterruptManager->_SET_DUTY_CCP3

Critical Paths under _main in BANK0

    _main->_PROCESS_RAW_SPEED
    _PROCESS_RAW_SPEED->___lmul
    _GET_CURRENT_POT_VALUES->_DETERMINE_WAVESHAPE
    _DETERMINE_WAVESHAPE->_DO_ADC

Critical Paths under _INTERRUPT_InterruptManager in BANK0

    None.

Critical Paths under _main in BANK1

    None.

Critical Paths under _INTERRUPT_InterruptManager in BANK1

    None.

Critical Paths under _main in BANK2

    None.

Critical Paths under _INTERRUPT_InterruptManager in BANK2

    None.

Call Graph Tables:

 ---------------------------------------------------------------------------------
 (Depth) Function   	        Calls       Base Space   Used Autos Params    Refs
 ---------------------------------------------------------------------------------
 (0) _main                                                 1     1      0    1385
                                             16 BANK0      1     1      0
                      _CONFIG_SYSTEM
              _CONFIG_TMR0_INTERRUPT
             _GET_CURRENT_POT_VALUES
                  _PROCESS_RAW_SPEED
                         _TMR0_WRITE
                   _TURN_ON_CCP3_PWM
 ---------------------------------------------------------------------------------
 (1) _TURN_ON_CCP3_PWM                                     0     0      0       0
 ---------------------------------------------------------------------------------
 (1) _TMR0_WRITE                                           1     1      0      55
                                              0 BANK0      1     1      0
 ---------------------------------------------------------------------------------
 (1) _PROCESS_RAW_SPEED                                    4     4      0     316
                                             12 BANK0      4     4      0
                             ___lmul
 ---------------------------------------------------------------------------------
 (2) ___lmul                                              12     4      8     316
                                              0 BANK0     12     4      8
 ---------------------------------------------------------------------------------
 (1) _GET_CURRENT_POT_VALUES                               2     2      0    1014
                                              8 BANK0      2     2      0
                _DETERMINE_WAVESHAPE
                             _DO_ADC
 ---------------------------------------------------------------------------------
 (2) _DETERMINE_WAVESHAPE                                  2     2      0     555
                                              6 BANK0      2     2      0
                             _DO_ADC
 ---------------------------------------------------------------------------------
 (2) _DO_ADC                                               6     4      2     459
                                              0 BANK0      6     4      2
 ---------------------------------------------------------------------------------
 (1) _CONFIG_TMR0_INTERRUPT                                0     0      0       0
 ---------------------------------------------------------------------------------
 (1) _CONFIG_SYSTEM                                        0     0      0       0
                    _CONFIG_ADC_PINS
                     _CONFIG_INT_OSC
                       _CONFIG_PORTS
                    _CONFIG_PWM_CCP3
 ---------------------------------------------------------------------------------
 (2) _CONFIG_PWM_CCP3                                      0     0      0       0
 ---------------------------------------------------------------------------------
 (2) _CONFIG_PORTS                                         0     0      0       0
 ---------------------------------------------------------------------------------
 (2) _CONFIG_INT_OSC                                       0     0      0       0
 ---------------------------------------------------------------------------------
 (2) _CONFIG_ADC_PINS                                      0     0      0       0
 ---------------------------------------------------------------------------------
 Estimated maximum stack depth 2
 ---------------------------------------------------------------------------------
 (Depth) Function   	        Calls       Base Space   Used Autos Params    Refs
 ---------------------------------------------------------------------------------
 (4) _INTERRUPT_InterruptManager                           2     2      0     100
                                              4 COMMON     2     2      0
                      _SET_DUTY_CCP3
 ---------------------------------------------------------------------------------
 (5) _SET_DUTY_CCP3                                        4     4      0     100
                                              0 COMMON     4     4      0
 ---------------------------------------------------------------------------------
 Estimated maximum stack depth 5
 ---------------------------------------------------------------------------------

 Call Graph Graphs:

 _main (ROOT)
   _CONFIG_SYSTEM
     _CONFIG_ADC_PINS
     _CONFIG_INT_OSC
     _CONFIG_PORTS
     _CONFIG_PWM_CCP3
   _CONFIG_TMR0_INTERRUPT
   _GET_CURRENT_POT_VALUES
     _DETERMINE_WAVESHAPE
       _DO_ADC
     _DO_ADC
   _PROCESS_RAW_SPEED
     ___lmul
   _TMR0_WRITE
   _TURN_ON_CCP3_PWM

 _INTERRUPT_InterruptManager (ROOT)
   _SET_DUTY_CCP3

 Address spaces:
Name               Size   Autos  Total    Cost      Usage
BIGRAM              E0      0       0       0        0.0%
EEDATA             100      0       0       0        0.0%
NULL                 0      0       0       0        0.0%
CODE                 0      0       0       0        0.0%
BITCOMMON            E      0       0       1        0.0%
BITSFR0              0      0       0       1        0.0%
SFR0                 0      0       0       1        0.0%
COMMON               E      6       C       2       85.7%
BITSFR1              0      0       0       2        0.0%
SFR1                 0      0       0       2        0.0%
BITSFR2              0      0       0       3        0.0%
SFR2                 0      0       0       3        0.0%
STACK                0      0       0       3        0.0%
BITSFR3              0      0       0       4        0.0%
SFR3                 0      0       0       4        0.0%
ABS                  0      0      41       4        0.0%
BITBANK0            50      0       0       5        0.0%
BITSFR4              0      0       0       5        0.0%
SFR4                 0      0       0       5        0.0%
BANK0               50     11      35       6       66.2%
BITSFR5              0      0       0       6        0.0%
SFR5                 0      0       0       6        0.0%
BITBANK1            50      0       0       7        0.0%
BITSFR6              0      0       0       7        0.0%
SFR6                 0      0       0       7        0.0%
BANK1               50      0       0       8        0.0%
BITSFR7              0      0       0       8        0.0%
SFR7                 0      0       0       8        0.0%
BITBANK2            40      0       0       9        0.0%
BITSFR8              0      0       0       9        0.0%
SFR8                 0      0       0       9        0.0%
BANK2               40      0       0      10        0.0%
BITSFR9              0      0       0      10        0.0%
SFR9                 0      0       0      10        0.0%
BITSFR10             0      0       0      11        0.0%
SFR10                0      0       0      11        0.0%
DATA                 0      0      41      11        0.0%
BITSFR11             0      0       0      12        0.0%
SFR11                0      0       0      12        0.0%
BITSFR12             0      0       0      13        0.0%
SFR12                0      0       0      13        0.0%
BITSFR13             0      0       0      14        0.0%
SFR13                0      0       0      14        0.0%
BITSFR14             0      0       0      15        0.0%
SFR14                0      0       0      15        0.0%
BITSFR15             0      0       0      16        0.0%
SFR15                0      0       0      16        0.0%
BITSFR16             0      0       0      17        0.0%
SFR16                0      0       0      17        0.0%
BITSFR17             0      0       0      18        0.0%
SFR17                0      0       0      18        0.0%
BITSFR18             0      0       0      19        0.0%
SFR18                0      0       0      19        0.0%
BITSFR19             0      0       0      20        0.0%
SFR19                0      0       0      20        0.0%
BITSFR20             0      0       0      21        0.0%
SFR20                0      0       0      21        0.0%
BITSFR21             0      0       0      22        0.0%
SFR21                0      0       0      22        0.0%
BITSFR22             0      0       0      23        0.0%
SFR22                0      0       0      23        0.0%
BITSFR23             0      0       0      24        0.0%
SFR23                0      0       0      24        0.0%
BITSFR24             0      0       0      25        0.0%
SFR24                0      0       0      25        0.0%
BITSFR25             0      0       0      26        0.0%
SFR25                0      0       0      26        0.0%
BITSFR26             0      0       0      27        0.0%
SFR26                0      0       0      27        0.0%
BITSFR27             0      0       0      28        0.0%
SFR27                0      0       0      28        0.0%
BITSFR28             0      0       0      29        0.0%
SFR28                0      0       0      29        0.0%
BITSFR29             0      0       0      30        0.0%
SFR29                0      0       0      30        0.0%
BITSFR30             0      0       0      31        0.0%
SFR30                0      0       0      31        0.0%
BITSFR31             0      0       0      32        0.0%
SFR31                0      0       0      32        0.0%


Microchip Technology PIC Macro Assembler V2.45 build 20230818022343 
Symbol Table                                                                                   Wed Jan 10 20:04:19 2024

                                 r1 0020                                   r2 0021  
                                 r3 0022                                 l140 03E2  
                               l159 048E                                 _GIE 005F  
                               _PR2 001B                                 u505 03CF  
                               u605 0319                                 u625 0343  
                               u635 034E                                 u565 03A9  
                               u575 03B0                                 u647 0430  
                               u657 03DD                                 wreg 0009  
                              l1230 040D                                l1234 040F  
                              l1314 042C                                l1228 0406  
                              l1262 03A8                                l1258 039E  
                              _C1ON 088F                                l1298 0338  
                              _ADON 04E8                                _TMR0 0015  
                              _WPUC 020E                   _current_speed_log 0030  
                              _main 0418                                _duty 0073  
                              fsr0h 0005                                fsr1h 0007  
                              indf0 0000                                fsr0l 0004  
                              indf1 0001                                fsr1l 0006  
                              btemp 007E                   _current_waveshape 0072  
                              start 00D0               _CONFIG_TMR0_INTERRUPT 04AD  
                  __end_of_NEGATIVE 04B3                __end_of_CONFIG_PORTS 0484  
                             STATUS 0003                               ?_main 0076  
                             _T2CON 001C                               _LATC5 0875  
                             i1l230 005B                               i1l231 0068  
                             i1l234 00CE                               u35_25 0454  
                             _SRLEN 08D7                               _TRISC 008E  
                       ?_TMR0_WRITE 0076                 ___lmul@multiplicand 0046  
                  __end_of_POSITIVE 04B4            ??_GET_CURRENT_POT_VALUES 004A  
                             status 0003                               wtemp0 007E  
        _current_one_quadrant_index 0071                     __initialization 00D2  
                      __end_of_main 043C         ?_INTERRUPT_InterruptManager 0076  
                            ??_main 0052               __end_of_DIVIDE_BY_TWO 04B1  
            _speed_adc_config_value 04B6               __end_of_CONFIG_SYSTEM 047B  
                            _ADCON0 009D                              _ADCON1 009E  
                            _ADRESH 009C                              _ADRESL 009B  
                            _CCPR3L 0311                              _ANSELC 018E  
                            _DO_ADC 03C5                              i1l1142 003D  
                            i1l1134 0022                              i1l1160 0059  
                            i1l1154 004F                              i1l1146 0044  
                            i1l1138 0035                              i1l1156 0050  
                            i1l1168 00C4                              _OSCCON 0099  
                            _TMR0IE 005D                              _TMR0IF 005A  
                            _TMR2IF 0089                              _TMR2ON 00E2  
                            _TRISA2 0462              ?_CONFIG_TMR0_INTERRUPT 0076  
                    DO_ADC@modifier 0042         __end_of_DETERMINE_WAVESHAPE 0418  
 __end_of_symmetry_adc_config_value 04B5                              ___lmul 0396  
             __end_of_SET_DUTY_CCP3 045C                   ?_TURN_ON_CCP3_PWM 0076  
                 ??_CONFIG_ADC_PINS 0042             _current_speed_linear_32 0024  
                ??_TURN_ON_CCP3_PWM 0042             __end_of__initialization 00E7  
                    _CONFIG_INT_OSC 04A1                      __pcstackCOMMON 0076  
                      __pidataBANK0 04AB              _tri_table_one_quadrant 00EB  
                 ??_CONFIG_PWM_CCP3 0042                   _top_two_bytes_ptr 0053  
                     _current_depth 002E                          __pbssBANK0 0020  
                           ?_DO_ADC 0042                        _CONFIG_PORTS 047B  
            __end_of_CONFIG_INT_OSC 04A7                  __end_of_DO_NOTHING 04B2  
                        __pmaintext 0418              _GET_CURRENT_POT_VALUES 0359  
                           ?___lmul 0042                          __pintentry 0004  
                           _CCP3CON 0313                      ___lmul@product 004A  
                        _final_TMR0 0041                        ??_TMR0_WRITE 0042  
             SET_DUTY_CCP3@duty_ptr 0079                             _OSCTUNE 0098  
           _sine_table_one_quadrant 01ED           TMR0_WRITE@timer_value_ptr 0042  
                   ?_CONFIG_INT_OSC 0076                _current_speed_log_32 0020  
                __end_of_TMR0_WRITE 049B                _current_speed_linear 0032  
         _base_prescaler_bits_index 003A                             __ptext1 048C  
                           __ptext2 0494                             __ptext3 02EF  
                           __ptext4 0396                             __ptext5 0359  
                           __ptext6 03F1                             __ptext7 03C5  
                           __ptext8 04AD                             __ptext9 046F  
                   _MULTIPLY_BY_TWO 04AF                             clrloop0 049C  
              end_of_initialization 00E7             ??_CONFIG_TMR0_INTERRUPT 0042  
                     _duty_low_byte 0040      __end_of_speed_adc_config_value 04B7  
            _depth_adc_config_value 04B5                     _CONFIG_ADC_PINS 04A7  
                  _TMR0_offset_sign 003C                          DO_ADC@temp 0047  
                    __end_of_DO_ADC 03F1                   SET_DUTY_CCP3@temp 0078  
                  _current_quadrant 003E             __end_of_MULTIPLY_BY_TWO 04B0  
                   _CONFIG_PWM_CCP3 045C                    _current_symmetry 002C  
                    __end_of___lmul 03C5            _speed_control_subtracted 0036  
               start_initialization 00D2                            ??_DO_ADC 0044  
           ?_GET_CURRENT_POT_VALUES 0076     __end_of_sine_table_one_quadrant 02EF  
           __end_of_CONFIG_ADC_PINS 04AB                            ??___lmul 004A  
    __end_of_tri_table_one_quadrant 01ED                         __pdataBANK0 0053  
                  DO_ADC@adc_result 0045                         __pbssCOMMON 0070  
                         ___latbits 0001                       _DIVIDE_BY_TWO 04B0  
                     __pcstackBANK0 0042                       _CONFIG_SYSTEM 046F  
                  ??_CONFIG_INT_OSC 0042      __end_of_GET_CURRENT_POT_VALUES 0396  
           __end_of_CONFIG_PWM_CCP3 046F                      _prescaler_bits 0484  
      ??_INTERRUPT_InterruptManager 007A                        _how_many_128 0034  
                     _SET_DUTY_CCP3 043C                            _CCPTMRS0 029E  
                    ?_CONFIG_SYSTEM 0076                    _prescaler_adjust 003B  
                          _NEGATIVE 04B2  __end_of_waveshape_adc_config_value 04B8  
        _waveshape_adc_config_value 04B7       __end_of_CONFIG_TMR0_INTERRUPT 04AF  
                         clear_ram0 049B                            _GO_nDONE 04E9  
                  _TURN_ON_CCP3_PWM 048C              __end_of_prescaler_bits 048C  
                  ?_CONFIG_ADC_PINS 0076                            _POSITIVE 04B3  
                 _PROCESS_RAW_SPEED 02EF                      ?_SET_DUTY_CCP3 0076  
                ?_PROCESS_RAW_SPEED 0076                   ___lmul@multiplier 0042  
               ??_PROCESS_RAW_SPEED 004E                 _DETERMINE_WAVESHAPE 03F1  
            DETERMINE_WAVESHAPE@ADC 0048                    ?_CONFIG_PWM_CCP3 0076  
    __end_of_depth_adc_config_value 04B6                ?_DETERMINE_WAVESHAPE 0076  
         __end_of_PROCESS_RAW_SPEED 0359                     ??_CONFIG_SYSTEM 0042  
                  _speed_control_32 0028                            __ptext10 045C  
                          __ptext11 047B                            __ptext12 04A1  
                          __ptext13 04A7                            __ptext15 043C  
                     ?_CONFIG_PORTS 0076                      _duty_high_byte 003F  
                     _speed_control 0038                            _raw_TMR0 0075  
                          int$flags 007E               ??_DETERMINE_WAVESHAPE 0048  
__end_of_INTERRUPT_InterruptManager 00D0          _INTERRUPT_InterruptManager 0004  
                   ??_SET_DUTY_CCP3 0076                          _DO_NOTHING 04B1  
                    __pstringtext10 04B5                      __pstringtext11 04B6  
                    __pstringtext12 04B7           _symmetry_adc_config_value 04B4  
                    ??_CONFIG_PORTS 0042                            intlevel1 0000  
                     __pstringtext1 00EB                       __pstringtext2 01ED  
                     __pstringtext3 0484                       __pstringtext4 04AF  
                     __pstringtext5 04B0                       __pstringtext6 04B1  
                     __pstringtext7 04B2                       __pstringtext8 04B3  
                     __pstringtext9 04B4                         _TMR0_offset 003D  
                        _TMR0_WRITE 0494            __end_of_TURN_ON_CCP3_PWM 0494  
                 _current_halfcycle 0070  
