

Microchip MPLAB XC8 Assembler V2.45 build 20230818022343 
                                                                                               Sat Dec 16 22:32:53 2023

Microchip MPLAB XC8 C Compiler v2.45 (Free license) build 20230818022343 Og1 
     1                           	processor	16F1824
     2                           	pagewidth 120
     3                           	opt	flic
     4                           	psect	stringtext1,global,class=STRCODE,delta=2,noexec
     5                           	psect	stringtext2,global,class=STRCODE,delta=2,noexec
     6                           	psect	stringtext3,global,class=STRCODE,delta=2,noexec
     7                           	psect	stringtext4,global,class=STRCODE,delta=2,noexec
     8                           	psect	stringtext5,global,class=STRCODE,delta=2,noexec
     9                           	psect	stringtext6,global,class=STRCODE,delta=2,noexec
    10                           	psect	stringtext7,global,class=STRCODE,delta=2,noexec
    11                           	psect	stringtext8,global,class=STRCODE,delta=2,noexec
    12                           	psect	stringtext9,global,class=STRCODE,delta=2,noexec
    13                           	psect	stringtext10,global,class=STRCODE,delta=2,noexec
    14                           	psect	stringtext11,global,class=STRCODE,delta=2,noexec
    15                           	psect	nvBANK1,global,class=BANK1,space=1,delta=1,noexec
    16                           	psect	cinit,global,class=CODE,merge=1,delta=2
    17                           	psect	bssBANK1,global,class=BANK1,space=1,delta=1,noexec
    18                           	psect	bssBANK2,global,class=BANK2,space=1,delta=1,noexec
    19                           	psect	cstackBANK2,global,class=BANK2,space=1,delta=1,noexec
    20                           	psect	cstackBANK1,global,class=BANK1,space=1,delta=1,noexec
    21                           	psect	cstackCOMMON,global,class=COMMON,space=1,delta=1,noexec
    22                           	psect	cstackBANK0,global,class=BANK0,space=1,delta=1,noexec
    23                           	psect	maintext,global,class=CODE,merge=1,split=1,delta=2
    24                           	psect	text1,local,class=CODE,merge=1,delta=2
    25                           	psect	text2,local,class=CODE,merge=1,delta=2
    26                           	psect	text3,local,class=CODE,merge=1,delta=2
    27                           	psect	text4,local,class=CODE,merge=1,delta=2,group=2
    28                           	psect	text5,local,class=CODE,merge=1,delta=2,group=1
    29                           	psect	text6,local,class=CODE,merge=1,delta=2,group=1
    30                           	psect	text7,local,class=CODE,merge=1,delta=2,group=1
    31                           	psect	text8,local,class=CODE,merge=1,delta=2,group=1
    32                           	psect	text9,local,class=CODE,merge=1,delta=2,group=1
    33                           	psect	text10,local,class=CODE,merge=1,delta=2,group=1
    34                           	psect	text11,local,class=CODE,merge=1,delta=2,group=1
    35                           	psect	text12,local,class=CODE,merge=1,delta=2
    36                           	psect	text13,local,class=CODE,merge=1,delta=2
    37                           	psect	text14,local,class=CODE,merge=1,delta=2
    38                           	psect	text15,local,class=CODE,merge=1,delta=2
    39                           	psect	config,global,abs,ovrld,class=CONFIG,space=4,delta=2,noexec
    40                           	dabs	1,0x7E,2
    41     0000                     
    42                           ; Generated 06/07/2023 GMT
    43                           ; 
    44                           ; Copyright © 2023, Microchip Technology Inc. and its subsidiaries ("Microchip")
    45                           ; All rights reserved.
    46                           ; 
    47                           ; This software is developed by Microchip Technology Inc. and its subsidiaries ("Microch
      +                          ip").
    48                           ; 
    49                           ; Redistribution and use in source and binary forms, with or without modification, are
    50                           ; permitted provided that the following conditions are met:
    51                           ; 
    52                           ;     1. Redistributions of source code must retain the above copyright notice, this lis
      +                          t of
    53                           ;        conditions and the following disclaimer.
    54                           ; 
    55                           ;     2. Redistributions in binary form must reproduce the above copyright notice, this 
      +                          list
    56                           ;        of conditions and the following disclaimer in the documentation and/or other
    57                           ;        materials provided with the distribution. Publication is not required when
    58                           ;        this file is used in an embedded application.
    59                           ; 
    60                           ;     3. Microchip's name may not be used to endorse or promote products derived from th
      +                          is
    61                           ;        software without specific prior written permission.
    62                           ; 
    63                           ; THIS SOFTWARE IS PROVIDED BY MICROCHIP "AS IS" AND ANY EXPRESS OR IMPLIED WARRANTIES,
    64                           ; INCLUDING, BUT NOT LIMITED TO, THE IMPLIED WARRANTIES OF MERCHANTABILITY AND FITNESS F
      +                          OR
    65                           ; PURPOSE ARE DISCLAIMED.  IN NO EVENT SHALL MICROCHIP BE LIABLE FOR ANY DIRECT, INDIREC
      +                          T,
    66                           ; INCIDENTAL, SPECIAL, EXEMPLARY, OR CONSEQUENTIAL DAMAGES (INCLUDING BUT NOT LIMITED TO
    67                           ; PROCUREMENT OF SUBSTITUTE GOODS OR SERVICES; LOSS OF USE, DATA OR PROFITS; OR BUSINESS
    68                           ; INTERRUPTION) HOWSOEVER CAUSED AND ON ANY THEORY OF LIABILITY, WHETHER IN CONTRACT, ST
      +                          RICT
    69                           ; LIABILITY, OR TORT (INCLUDING NEGLIGENCE OR OTHERWISE) ARISING IN ANY WAY OUT OF THE U
      +                          SE OF
    70                           ; THIS SOFTWARE, EVEN IF ADVISED OF THE POSSIBILITY OF SUCH DAMAGE.
    71                           ; 
    72                           ; 
    73                           ; Code-generator required, PIC16F1824 Definitions
    74                           ; 
    75                           ; SFR Addresses
    76     0000                     	;# 
    77     0001                     	;# 
    78     0002                     	;# 
    79     0003                     	;# 
    80     0004                     	;# 
    81     0005                     	;# 
    82     0006                     	;# 
    83     0007                     	;# 
    84     0008                     	;# 
    85     0009                     	;# 
    86     000A                     	;# 
    87     000B                     	;# 
    88     000C                     	;# 
    89     000E                     	;# 
    90     0011                     	;# 
    91     0012                     	;# 
    92     0013                     	;# 
    93     0015                     	;# 
    94     0016                     	;# 
    95     0016                     	;# 
    96     0017                     	;# 
    97     0018                     	;# 
    98     0019                     	;# 
    99     001A                     	;# 
   100     001B                     	;# 
   101     001C                     	;# 
   102     001E                     	;# 
   103     001F                     	;# 
   104     008C                     	;# 
   105     008E                     	;# 
   106     0091                     	;# 
   107     0092                     	;# 
   108     0093                     	;# 
   109     0095                     	;# 
   110     0096                     	;# 
   111     0097                     	;# 
   112     0098                     	;# 
   113     0099                     	;# 
   114     009A                     	;# 
   115     009B                     	;# 
   116     009B                     	;# 
   117     009C                     	;# 
   118     009D                     	;# 
   119     009E                     	;# 
   120     010C                     	;# 
   121     010E                     	;# 
   122     0111                     	;# 
   123     0112                     	;# 
   124     0113                     	;# 
   125     0114                     	;# 
   126     0115                     	;# 
   127     0116                     	;# 
   128     0117                     	;# 
   129     0118                     	;# 
   130     0119                     	;# 
   131     011A                     	;# 
   132     011B                     	;# 
   133     011D                     	;# 
   134     011E                     	;# 
   135     018C                     	;# 
   136     018E                     	;# 
   137     0191                     	;# 
   138     0191                     	;# 
   139     0192                     	;# 
   140     0193                     	;# 
   141     0193                     	;# 
   142     0193                     	;# 
   143     0194                     	;# 
   144     0195                     	;# 
   145     0196                     	;# 
   146     0199                     	;# 
   147     019A                     	;# 
   148     019B                     	;# 
   149     019B                     	;# 
   150     019B                     	;# 
   151     019B                     	;# 
   152     019C                     	;# 
   153     019C                     	;# 
   154     019D                     	;# 
   155     019E                     	;# 
   156     019F                     	;# 
   157     020C                     	;# 
   158     020E                     	;# 
   159     0211                     	;# 
   160     0211                     	;# 
   161     0212                     	;# 
   162     0212                     	;# 
   163     0213                     	;# 
   164     0213                     	;# 
   165     0214                     	;# 
   166     0214                     	;# 
   167     0215                     	;# 
   168     0215                     	;# 
   169     0215                     	;# 
   170     0215                     	;# 
   171     0216                     	;# 
   172     0216                     	;# 
   173     0217                     	;# 
   174     0217                     	;# 
   175     0291                     	;# 
   176     0291                     	;# 
   177     0292                     	;# 
   178     0293                     	;# 
   179     0294                     	;# 
   180     0295                     	;# 
   181     0295                     	;# 
   182     0296                     	;# 
   183     0298                     	;# 
   184     0298                     	;# 
   185     0299                     	;# 
   186     029A                     	;# 
   187     029B                     	;# 
   188     029C                     	;# 
   189     029D                     	;# 
   190     029E                     	;# 
   191     029E                     	;# 
   192     0311                     	;# 
   193     0311                     	;# 
   194     0312                     	;# 
   195     0313                     	;# 
   196     0318                     	;# 
   197     0318                     	;# 
   198     0319                     	;# 
   199     031A                     	;# 
   200     038C                     	;# 
   201     038E                     	;# 
   202     0391                     	;# 
   203     0392                     	;# 
   204     0393                     	;# 
   205     039A                     	;# 
   206     039C                     	;# 
   207     039D                     	;# 
   208     039E                     	;# 
   209     039F                     	;# 
   210     0415                     	;# 
   211     0416                     	;# 
   212     0417                     	;# 
   213     041C                     	;# 
   214     041D                     	;# 
   215     041E                     	;# 
   216     0FE4                     	;# 
   217     0FE5                     	;# 
   218     0FE6                     	;# 
   219     0FE7                     	;# 
   220     0FE8                     	;# 
   221     0FE9                     	;# 
   222     0FEA                     	;# 
   223     0FEB                     	;# 
   224     0FED                     	;# 
   225     0FEE                     	;# 
   226     0FEF                     	;# 
   227     0000                     	;# 
   228     0001                     	;# 
   229     0002                     	;# 
   230     0003                     	;# 
   231     0004                     	;# 
   232     0005                     	;# 
   233     0006                     	;# 
   234     0007                     	;# 
   235     0008                     	;# 
   236     0009                     	;# 
   237     000A                     	;# 
   238     000B                     	;# 
   239     000C                     	;# 
   240     000E                     	;# 
   241     0011                     	;# 
   242     0012                     	;# 
   243     0013                     	;# 
   244     0015                     	;# 
   245     0016                     	;# 
   246     0016                     	;# 
   247     0017                     	;# 
   248     0018                     	;# 
   249     0019                     	;# 
   250     001A                     	;# 
   251     001B                     	;# 
   252     001C                     	;# 
   253     001E                     	;# 
   254     001F                     	;# 
   255     008C                     	;# 
   256     008E                     	;# 
   257     0091                     	;# 
   258     0092                     	;# 
   259     0093                     	;# 
   260     0095                     	;# 
   261     0096                     	;# 
   262     0097                     	;# 
   263     0098                     	;# 
   264     0099                     	;# 
   265     009A                     	;# 
   266     009B                     	;# 
   267     009B                     	;# 
   268     009C                     	;# 
   269     009D                     	;# 
   270     009E                     	;# 
   271     010C                     	;# 
   272     010E                     	;# 
   273     0111                     	;# 
   274     0112                     	;# 
   275     0113                     	;# 
   276     0114                     	;# 
   277     0115                     	;# 
   278     0116                     	;# 
   279     0117                     	;# 
   280     0118                     	;# 
   281     0119                     	;# 
   282     011A                     	;# 
   283     011B                     	;# 
   284     011D                     	;# 
   285     011E                     	;# 
   286     018C                     	;# 
   287     018E                     	;# 
   288     0191                     	;# 
   289     0191                     	;# 
   290     0192                     	;# 
   291     0193                     	;# 
   292     0193                     	;# 
   293     0193                     	;# 
   294     0194                     	;# 
   295     0195                     	;# 
   296     0196                     	;# 
   297     0199                     	;# 
   298     019A                     	;# 
   299     019B                     	;# 
   300     019B                     	;# 
   301     019B                     	;# 
   302     019B                     	;# 
   303     019C                     	;# 
   304     019C                     	;# 
   305     019D                     	;# 
   306     019E                     	;# 
   307     019F                     	;# 
   308     020C                     	;# 
   309     020E                     	;# 
   310     0211                     	;# 
   311     0211                     	;# 
   312     0212                     	;# 
   313     0212                     	;# 
   314     0213                     	;# 
   315     0213                     	;# 
   316     0214                     	;# 
   317     0214                     	;# 
   318     0215                     	;# 
   319     0215                     	;# 
   320     0215                     	;# 
   321     0215                     	;# 
   322     0216                     	;# 
   323     0216                     	;# 
   324     0217                     	;# 
   325     0217                     	;# 
   326     0291                     	;# 
   327     0291                     	;# 
   328     0292                     	;# 
   329     0293                     	;# 
   330     0294                     	;# 
   331     0295                     	;# 
   332     0295                     	;# 
   333     0296                     	;# 
   334     0298                     	;# 
   335     0298                     	;# 
   336     0299                     	;# 
   337     029A                     	;# 
   338     029B                     	;# 
   339     029C                     	;# 
   340     029D                     	;# 
   341     029E                     	;# 
   342     029E                     	;# 
   343     0311                     	;# 
   344     0311                     	;# 
   345     0312                     	;# 
   346     0313                     	;# 
   347     0318                     	;# 
   348     0318                     	;# 
   349     0319                     	;# 
   350     031A                     	;# 
   351     038C                     	;# 
   352     038E                     	;# 
   353     0391                     	;# 
   354     0392                     	;# 
   355     0393                     	;# 
   356     039A                     	;# 
   357     039C                     	;# 
   358     039D                     	;# 
   359     039E                     	;# 
   360     039F                     	;# 
   361     0415                     	;# 
   362     0416                     	;# 
   363     0417                     	;# 
   364     041C                     	;# 
   365     041D                     	;# 
   366     041E                     	;# 
   367     0FE4                     	;# 
   368     0FE5                     	;# 
   369     0FE6                     	;# 
   370     0FE7                     	;# 
   371     0FE8                     	;# 
   372     0FE9                     	;# 
   373     0FEA                     	;# 
   374     0FEB                     	;# 
   375     0FED                     	;# 
   376     0FEE                     	;# 
   377     0FEF                     	;# 
   378                           
   379                           	psect	stringtext1
   380     0800                     __pstringtext1:
   381     0800                     _tri_table_one_quadrant:
   382     0800  3400               	retlw	0
   383     0801  3402               	retlw	2
   384     0802  3404               	retlw	4
   385     0803  3402               	retlw	2
   386     0804  3408               	retlw	8
   387     0805  3402               	retlw	2
   388     0806  340C               	retlw	12
   389     0807  3402               	retlw	2
   390     0808  3410               	retlw	16
   391     0809  3402               	retlw	2
   392     080A  3414               	retlw	20
   393     080B  3402               	retlw	2
   394     080C  3418               	retlw	24
   395     080D  3402               	retlw	2
   396     080E  341C               	retlw	28
   397     080F  3402               	retlw	2
   398     0810  3420               	retlw	32
   399     0811  3402               	retlw	2
   400     0812  3424               	retlw	36
   401     0813  3402               	retlw	2
   402     0814  3428               	retlw	40
   403     0815  3402               	retlw	2
   404     0816  342C               	retlw	44
   405     0817  3402               	retlw	2
   406     0818  3430               	retlw	48
   407     0819  3402               	retlw	2
   408     081A  3434               	retlw	52
   409     081B  3402               	retlw	2
   410     081C  3438               	retlw	56
   411     081D  3402               	retlw	2
   412     081E  343C               	retlw	60
   413     081F  3402               	retlw	2
   414     0820  3440               	retlw	64
   415     0821  3402               	retlw	2
   416     0822  3444               	retlw	68
   417     0823  3402               	retlw	2
   418     0824  3448               	retlw	72
   419     0825  3402               	retlw	2
   420     0826  344C               	retlw	76
   421     0827  3402               	retlw	2
   422     0828  3450               	retlw	80
   423     0829  3402               	retlw	2
   424     082A  3454               	retlw	84
   425     082B  3402               	retlw	2
   426     082C  3458               	retlw	88
   427     082D  3402               	retlw	2
   428     082E  345C               	retlw	92
   429     082F  3402               	retlw	2
   430     0830  3460               	retlw	96
   431     0831  3402               	retlw	2
   432     0832  3464               	retlw	100
   433     0833  3402               	retlw	2
   434     0834  3468               	retlw	104
   435     0835  3402               	retlw	2
   436     0836  346C               	retlw	108
   437     0837  3402               	retlw	2
   438     0838  3470               	retlw	112
   439     0839  3402               	retlw	2
   440     083A  3474               	retlw	116
   441     083B  3402               	retlw	2
   442     083C  3478               	retlw	120
   443     083D  3402               	retlw	2
   444     083E  347C               	retlw	124
   445     083F  3402               	retlw	2
   446     0840  3480               	retlw	128
   447     0841  3402               	retlw	2
   448     0842  3484               	retlw	132
   449     0843  3402               	retlw	2
   450     0844  3488               	retlw	136
   451     0845  3402               	retlw	2
   452     0846  348C               	retlw	140
   453     0847  3402               	retlw	2
   454     0848  3490               	retlw	144
   455     0849  3402               	retlw	2
   456     084A  3494               	retlw	148
   457     084B  3402               	retlw	2
   458     084C  3498               	retlw	152
   459     084D  3402               	retlw	2
   460     084E  349C               	retlw	156
   461     084F  3402               	retlw	2
   462     0850  34A0               	retlw	160
   463     0851  3402               	retlw	2
   464     0852  34A4               	retlw	164
   465     0853  3402               	retlw	2
   466     0854  34A8               	retlw	168
   467     0855  3402               	retlw	2
   468     0856  34AC               	retlw	172
   469     0857  3402               	retlw	2
   470     0858  34B0               	retlw	176
   471     0859  3402               	retlw	2
   472     085A  34B4               	retlw	180
   473     085B  3402               	retlw	2
   474     085C  34B8               	retlw	184
   475     085D  3402               	retlw	2
   476     085E  34BC               	retlw	188
   477     085F  3402               	retlw	2
   478     0860  34C0               	retlw	192
   479     0861  3402               	retlw	2
   480     0862  34C4               	retlw	196
   481     0863  3402               	retlw	2
   482     0864  34C8               	retlw	200
   483     0865  3402               	retlw	2
   484     0866  34CC               	retlw	204
   485     0867  3402               	retlw	2
   486     0868  34D0               	retlw	208
   487     0869  3402               	retlw	2
   488     086A  34D4               	retlw	212
   489     086B  3402               	retlw	2
   490     086C  34D8               	retlw	216
   491     086D  3402               	retlw	2
   492     086E  34DC               	retlw	220
   493     086F  3402               	retlw	2
   494     0870  34E0               	retlw	224
   495     0871  3402               	retlw	2
   496     0872  34E4               	retlw	228
   497     0873  3402               	retlw	2
   498     0874  34E8               	retlw	232
   499     0875  3402               	retlw	2
   500     0876  34EC               	retlw	236
   501     0877  3402               	retlw	2
   502     0878  34F0               	retlw	240
   503     0879  3402               	retlw	2
   504     087A  34F4               	retlw	244
   505     087B  3402               	retlw	2
   506     087C  34F8               	retlw	248
   507     087D  3402               	retlw	2
   508     087E  34FC               	retlw	252
   509     087F  3402               	retlw	2
   510     0880  3400               	retlw	0
   511     0881  3403               	retlw	3
   512     0882  3404               	retlw	4
   513     0883  3403               	retlw	3
   514     0884  3408               	retlw	8
   515     0885  3403               	retlw	3
   516     0886  340C               	retlw	12
   517     0887  3403               	retlw	3
   518     0888  3410               	retlw	16
   519     0889  3403               	retlw	3
   520     088A  3414               	retlw	20
   521     088B  3403               	retlw	3
   522     088C  3418               	retlw	24
   523     088D  3403               	retlw	3
   524     088E  341C               	retlw	28
   525     088F  3403               	retlw	3
   526     0890  3420               	retlw	32
   527     0891  3403               	retlw	3
   528     0892  3424               	retlw	36
   529     0893  3403               	retlw	3
   530     0894  3428               	retlw	40
   531     0895  3403               	retlw	3
   532     0896  342C               	retlw	44
   533     0897  3403               	retlw	3
   534     0898  3430               	retlw	48
   535     0899  3403               	retlw	3
   536     089A  3434               	retlw	52
   537     089B  3403               	retlw	3
   538     089C  3438               	retlw	56
   539     089D  3403               	retlw	3
   540     089E  343C               	retlw	60
   541     089F  3403               	retlw	3
   542     08A0  3440               	retlw	64
   543     08A1  3403               	retlw	3
   544     08A2  3444               	retlw	68
   545     08A3  3403               	retlw	3
   546     08A4  3448               	retlw	72
   547     08A5  3403               	retlw	3
   548     08A6  344C               	retlw	76
   549     08A7  3403               	retlw	3
   550     08A8  3450               	retlw	80
   551     08A9  3403               	retlw	3
   552     08AA  3454               	retlw	84
   553     08AB  3403               	retlw	3
   554     08AC  3458               	retlw	88
   555     08AD  3403               	retlw	3
   556     08AE  345C               	retlw	92
   557     08AF  3403               	retlw	3
   558     08B0  3460               	retlw	96
   559     08B1  3403               	retlw	3
   560     08B2  3464               	retlw	100
   561     08B3  3403               	retlw	3
   562     08B4  3468               	retlw	104
   563     08B5  3403               	retlw	3
   564     08B6  346C               	retlw	108
   565     08B7  3403               	retlw	3
   566     08B8  3470               	retlw	112
   567     08B9  3403               	retlw	3
   568     08BA  3474               	retlw	116
   569     08BB  3403               	retlw	3
   570     08BC  3478               	retlw	120
   571     08BD  3403               	retlw	3
   572     08BE  347C               	retlw	124
   573     08BF  3403               	retlw	3
   574     08C0  3480               	retlw	128
   575     08C1  3403               	retlw	3
   576     08C2  3484               	retlw	132
   577     08C3  3403               	retlw	3
   578     08C4  3488               	retlw	136
   579     08C5  3403               	retlw	3
   580     08C6  348C               	retlw	140
   581     08C7  3403               	retlw	3
   582     08C8  3490               	retlw	144
   583     08C9  3403               	retlw	3
   584     08CA  3494               	retlw	148
   585     08CB  3403               	retlw	3
   586     08CC  3498               	retlw	152
   587     08CD  3403               	retlw	3
   588     08CE  349C               	retlw	156
   589     08CF  3403               	retlw	3
   590     08D0  34A0               	retlw	160
   591     08D1  3403               	retlw	3
   592     08D2  34A4               	retlw	164
   593     08D3  3403               	retlw	3
   594     08D4  34A8               	retlw	168
   595     08D5  3403               	retlw	3
   596     08D6  34AC               	retlw	172
   597     08D7  3403               	retlw	3
   598     08D8  34B0               	retlw	176
   599     08D9  3403               	retlw	3
   600     08DA  34B4               	retlw	180
   601     08DB  3403               	retlw	3
   602     08DC  34B8               	retlw	184
   603     08DD  3403               	retlw	3
   604     08DE  34BC               	retlw	188
   605     08DF  3403               	retlw	3
   606     08E0  34C0               	retlw	192
   607     08E1  3403               	retlw	3
   608     08E2  34C4               	retlw	196
   609     08E3  3403               	retlw	3
   610     08E4  34C8               	retlw	200
   611     08E5  3403               	retlw	3
   612     08E6  34CC               	retlw	204
   613     08E7  3403               	retlw	3
   614     08E8  34D0               	retlw	208
   615     08E9  3403               	retlw	3
   616     08EA  34D4               	retlw	212
   617     08EB  3403               	retlw	3
   618     08EC  34D8               	retlw	216
   619     08ED  3403               	retlw	3
   620     08EE  34DC               	retlw	220
   621     08EF  3403               	retlw	3
   622     08F0  34E0               	retlw	224
   623     08F1  3403               	retlw	3
   624     08F2  34E4               	retlw	228
   625     08F3  3403               	retlw	3
   626     08F4  34E8               	retlw	232
   627     08F5  3403               	retlw	3
   628     08F6  34EC               	retlw	236
   629     08F7  3403               	retlw	3
   630     08F8  34F0               	retlw	240
   631     08F9  3403               	retlw	3
   632     08FA  34F4               	retlw	244
   633     08FB  3403               	retlw	3
   634     08FC  34F8               	retlw	248
   635     08FD  3403               	retlw	3
   636     08FE  34FC               	retlw	252
   637     08FF  3403               	retlw	3
   638     0900                     __end_of_tri_table_one_quadrant:
   639                           
   640                           	psect	stringtext2
   641     0900                     __pstringtext2:
   642     0900                     _sine_table_one_quadrant:
   643     0900  3400               	retlw	0
   644     0901  3402               	retlw	2
   645     0902  3406               	retlw	6
   646     0903  3402               	retlw	2
   647     0904  340C               	retlw	12
   648     0905  3402               	retlw	2
   649     0906  3412               	retlw	18
   650     0907  3402               	retlw	2
   651     0908  3419               	retlw	25
   652     0909  3402               	retlw	2
   653     090A  341F               	retlw	31
   654     090B  3402               	retlw	2
   655     090C  3425               	retlw	37
   656     090D  3402               	retlw	2
   657     090E  342B               	retlw	43
   658     090F  3402               	retlw	2
   659     0910  3432               	retlw	50
   660     0911  3402               	retlw	2
   661     0912  3438               	retlw	56
   662     0913  3402               	retlw	2
   663     0914  343E               	retlw	62
   664     0915  3402               	retlw	2
   665     0916  3444               	retlw	68
   666     0917  3402               	retlw	2
   667     0918  344B               	retlw	75
   668     0919  3402               	retlw	2
   669     091A  3451               	retlw	81
   670     091B  3402               	retlw	2
   671     091C  3457               	retlw	87
   672     091D  3402               	retlw	2
   673     091E  345D               	retlw	93
   674     091F  3402               	retlw	2
   675     0920  3463               	retlw	99
   676     0921  3402               	retlw	2
   677     0922  3469               	retlw	105
   678     0923  3402               	retlw	2
   679     0924  3470               	retlw	112
   680     0925  3402               	retlw	2
   681     0926  3476               	retlw	118
   682     0927  3402               	retlw	2
   683     0928  347C               	retlw	124
   684     0929  3402               	retlw	2
   685     092A  3482               	retlw	130
   686     092B  3402               	retlw	2
   687     092C  3488               	retlw	136
   688     092D  3402               	retlw	2
   689     092E  348E               	retlw	142
   690     092F  3402               	retlw	2
   691     0930  3494               	retlw	148
   692     0931  3402               	retlw	2
   693     0932  349A               	retlw	154
   694     0933  3402               	retlw	2
   695     0934  34A0               	retlw	160
   696     0935  3402               	retlw	2
   697     0936  34A6               	retlw	166
   698     0937  3402               	retlw	2
   699     0938  34AC               	retlw	172
   700     0939  3402               	retlw	2
   701     093A  34B2               	retlw	178
   702     093B  3402               	retlw	2
   703     093C  34B8               	retlw	184
   704     093D  3402               	retlw	2
   705     093E  34BD               	retlw	189
   706     093F  3402               	retlw	2
   707     0940  34C3               	retlw	195
   708     0941  3402               	retlw	2
   709     0942  34C9               	retlw	201
   710     0943  3402               	retlw	2
   711     0944  34CF               	retlw	207
   712     0945  3402               	retlw	2
   713     0946  34D5               	retlw	213
   714     0947  3402               	retlw	2
   715     0948  34DA               	retlw	218
   716     0949  3402               	retlw	2
   717     094A  34E0               	retlw	224
   718     094B  3402               	retlw	2
   719     094C  34E5               	retlw	229
   720     094D  3402               	retlw	2
   721     094E  34EB               	retlw	235
   722     094F  3402               	retlw	2
   723     0950  34F1               	retlw	241
   724     0951  3402               	retlw	2
   725     0952  34F6               	retlw	246
   726     0953  3402               	retlw	2
   727     0954  34FC               	retlw	252
   728     0955  3402               	retlw	2
   729     0956  3401               	retlw	1
   730     0957  3403               	retlw	3
   731     0958  3406               	retlw	6
   732     0959  3403               	retlw	3
   733     095A  340C               	retlw	12
   734     095B  3403               	retlw	3
   735     095C  3411               	retlw	17
   736     095D  3403               	retlw	3
   737     095E  3416               	retlw	22
   738     095F  3403               	retlw	3
   739     0960  341C               	retlw	28
   740     0961  3403               	retlw	3
   741     0962  3421               	retlw	33
   742     0963  3403               	retlw	3
   743     0964  3426               	retlw	38
   744     0965  3403               	retlw	3
   745     0966  342B               	retlw	43
   746     0967  3403               	retlw	3
   747     0968  3430               	retlw	48
   748     0969  3403               	retlw	3
   749     096A  3435               	retlw	53
   750     096B  3403               	retlw	3
   751     096C  343A               	retlw	58
   752     096D  3403               	retlw	3
   753     096E  343F               	retlw	63
   754     096F  3403               	retlw	3
   755     0970  3444               	retlw	68
   756     0971  3403               	retlw	3
   757     0972  3449               	retlw	73
   758     0973  3403               	retlw	3
   759     0974  344E               	retlw	78
   760     0975  3403               	retlw	3
   761     0976  3452               	retlw	82
   762     0977  3403               	retlw	3
   763     0978  3457               	retlw	87
   764     0979  3403               	retlw	3
   765     097A  345C               	retlw	92
   766     097B  3403               	retlw	3
   767     097C  3460               	retlw	96
   768     097D  3403               	retlw	3
   769     097E  3465               	retlw	101
   770     097F  3403               	retlw	3
   771     0980  3469               	retlw	105
   772     0981  3403               	retlw	3
   773     0982  346E               	retlw	110
   774     0983  3403               	retlw	3
   775     0984  3472               	retlw	114
   776     0985  3403               	retlw	3
   777     0986  3476               	retlw	118
   778     0987  3403               	retlw	3
   779     0988  347A               	retlw	122
   780     0989  3403               	retlw	3
   781     098A  347F               	retlw	127
   782     098B  3403               	retlw	3
   783     098C  3483               	retlw	131
   784     098D  3403               	retlw	3
   785     098E  3487               	retlw	135
   786     098F  3403               	retlw	3
   787     0990  348B               	retlw	139
   788     0991  3403               	retlw	3
   789     0992  348F               	retlw	143
   790     0993  3403               	retlw	3
   791     0994  3493               	retlw	147
   792     0995  3403               	retlw	3
   793     0996  3497               	retlw	151
   794     0997  3403               	retlw	3
   795     0998  349A               	retlw	154
   796     0999  3403               	retlw	3
   797     099A  349E               	retlw	158
   798     099B  3403               	retlw	3
   799     099C  34A2               	retlw	162
   800     099D  3403               	retlw	3
   801     099E  34A5               	retlw	165
   802     099F  3403               	retlw	3
   803     09A0  34A9               	retlw	169
   804     09A1  3403               	retlw	3
   805     09A2  34AC               	retlw	172
   806     09A3  3403               	retlw	3
   807     09A4  34B0               	retlw	176
   808     09A5  3403               	retlw	3
   809     09A6  34B3               	retlw	179
   810     09A7  3403               	retlw	3
   811     09A8  34B6               	retlw	182
   812     09A9  3403               	retlw	3
   813     09AA  34B9               	retlw	185
   814     09AB  3403               	retlw	3
   815     09AC  34BD               	retlw	189
   816     09AD  3403               	retlw	3
   817     09AE  34C0               	retlw	192
   818     09AF  3403               	retlw	3
   819     09B0  34C3               	retlw	195
   820     09B1  3403               	retlw	3
   821     09B2  34C6               	retlw	198
   822     09B3  3403               	retlw	3
   823     09B4  34C8               	retlw	200
   824     09B5  3403               	retlw	3
   825     09B6  34CB               	retlw	203
   826     09B7  3403               	retlw	3
   827     09B8  34CE               	retlw	206
   828     09B9  3403               	retlw	3
   829     09BA  34D1               	retlw	209
   830     09BB  3403               	retlw	3
   831     09BC  34D3               	retlw	211
   832     09BD  3403               	retlw	3
   833     09BE  34D6               	retlw	214
   834     09BF  3403               	retlw	3
   835     09C0  34D8               	retlw	216
   836     09C1  3403               	retlw	3
   837     09C2  34DA               	retlw	218
   838     09C3  3403               	retlw	3
   839     09C4  34DD               	retlw	221
   840     09C5  3403               	retlw	3
   841     09C6  34DF               	retlw	223
   842     09C7  3403               	retlw	3
   843     09C8  34E1               	retlw	225
   844     09C9  3403               	retlw	3
   845     09CA  34E3               	retlw	227
   846     09CB  3403               	retlw	3
   847     09CC  34E5               	retlw	229
   848     09CD  3403               	retlw	3
   849     09CE  34E7               	retlw	231
   850     09CF  3403               	retlw	3
   851     09D0  34E9               	retlw	233
   852     09D1  3403               	retlw	3
   853     09D2  34EB               	retlw	235
   854     09D3  3403               	retlw	3
   855     09D4  34EC               	retlw	236
   856     09D5  3403               	retlw	3
   857     09D6  34EE               	retlw	238
   858     09D7  3403               	retlw	3
   859     09D8  34F0               	retlw	240
   860     09D9  3403               	retlw	3
   861     09DA  34F1               	retlw	241
   862     09DB  3403               	retlw	3
   863     09DC  34F3               	retlw	243
   864     09DD  3403               	retlw	3
   865     09DE  34F4               	retlw	244
   866     09DF  3403               	retlw	3
   867     09E0  34F5               	retlw	245
   868     09E1  3403               	retlw	3
   869     09E2  34F6               	retlw	246
   870     09E3  3403               	retlw	3
   871     09E4  34F7               	retlw	247
   872     09E5  3403               	retlw	3
   873     09E6  34F9               	retlw	249
   874     09E7  3403               	retlw	3
   875     09E8  34F9               	retlw	249
   876     09E9  3403               	retlw	3
   877     09EA  34FA               	retlw	250
   878     09EB  3403               	retlw	3
   879     09EC  34FB               	retlw	251
   880     09ED  3403               	retlw	3
   881     09EE  34FC               	retlw	252
   882     09EF  3403               	retlw	3
   883     09F0  34FD               	retlw	253
   884     09F1  3403               	retlw	3
   885     09F2  34FD               	retlw	253
   886     09F3  3403               	retlw	3
   887     09F4  34FE               	retlw	254
   888     09F5  3403               	retlw	3
   889     09F6  34FE               	retlw	254
   890     09F7  3403               	retlw	3
   891     09F8  34FE               	retlw	254
   892     09F9  3403               	retlw	3
   893     09FA  34FF               	retlw	255
   894     09FB  3403               	retlw	3
   895     09FC  34FF               	retlw	255
   896     09FD  3403               	retlw	3
   897     09FE  34FF               	retlw	255
   898     09FF  3403               	retlw	3
   899     0A00                     __end_of_sine_table_one_quadrant:
   900                           
   901                           	psect	stringtext3
   902     0A00                     __pstringtext3:
   903     0A00                     _Lg4:
   904     0A00  3426               	retlw	38
   905     0A01  349E               	retlw	158
   906     0A02  3478               	retlw	120
   907     0A03  343E               	retlw	62
   908     0A04                     __end_of_Lg4:
   909                           
   910                           	psect	stringtext4
   911     0A04                     __pstringtext4:
   912     0A04                     _Lg3:
   913     0A04  34EE               	retlw	238
   914     0A05  34E9               	retlw	233
   915     0A06  3491               	retlw	145
   916     0A07  343E               	retlw	62
   917     0A08                     __end_of_Lg3:
   918                           
   919                           	psect	stringtext5
   920     0A08                     __pstringtext5:
   921     0A08                     _Lg2:
   922     0A08  3413               	retlw	19
   923     0A09  34CE               	retlw	206
   924     0A0A  34CC               	retlw	204
   925     0A0B  343E               	retlw	62
   926     0A0C                     __end_of_Lg2:
   927                           
   928                           	psect	stringtext6
   929     0A0C                     __pstringtext6:
   930     0A0C                     _Lg1:
   931     0A0C  34AA               	retlw	170
   932     0A0D  34AA               	retlw	170
   933     0A0E  342A               	retlw	42
   934     0A0F  343F               	retlw	63
   935     0A10                     __end_of_Lg1:
   936                           
   937                           	psect	stringtext7
   938     0A10                     __pstringtext7:
   939     0A10                     _log10_2lo:
   940     0A10  34DB               	retlw	219
   941     0A11  3427               	retlw	39
   942     0A12  3454               	retlw	84
   943     0A13  3435               	retlw	53
   944     0A14                     __end_of_log10_2lo:
   945                           
   946                           	psect	stringtext8
   947     0A14                     __pstringtext8:
   948     0A14                     _log10_2hi:
   949     0A14  3480               	retlw	128
   950     0A15  3420               	retlw	32
   951     0A16  349A               	retlw	154
   952     0A17  343E               	retlw	62
   953     0A18                     __end_of_log10_2hi:
   954                           
   955                           	psect	stringtext9
   956     0A18                     __pstringtext9:
   957     0A18                     _ivln10lo:
   958     0A18  34D9               	retlw	217
   959     0A19  34EA               	retlw	234
   960     0A1A  3404               	retlw	4
   961     0A1B  34B8               	retlw	184
   962     0A1C                     __end_of_ivln10lo:
   963                           
   964                           	psect	stringtext10
   965     0A1C                     __pstringtext10:
   966     0A1C                     _ivln10hi:
   967     0A1C  3400               	retlw	0
   968     0A1D  3460               	retlw	96
   969     0A1E  34DE               	retlw	222
   970     0A1F  343E               	retlw	62
   971     0A20                     __end_of_ivln10hi:
   972                           
   973                           	psect	stringtext11
   974     0A20                     __pstringtext11:
   975     0A20                     _A2D_lookup:
   976     0A20  3404               	retlw	4
   977     0A21  3405               	retlw	5
   978     0A22  3406               	retlw	6
   979     0A23                     __end_of_A2D_lookup:
   980                           
   981                           	psect	nvBANK1
   982     00C4                     __pnvBANK1:
   983     00C4                     _current_depth:
   984     00C4                     	ds	2
   985     00C6                     _current_waveshape:
   986     00C6                     	ds	1
   987     00C7                     _current_speed_linear:
   988     00C7                     	ds	2
   989     001C                     _T2CON	set	28
   990     001B                     _PR2	set	27
   991     00E2                     _TMR2ON	set	226
   992     0089                     _TMR2IF	set	137
   993     009B                     _ADRESL	set	155
   994     009C                     _ADRESH	set	156
   995     009D                     _ADCON0	set	157
   996     009E                     _ADCON1	set	158
   997     008E                     _TRISC	set	142
   998     0099                     _OSCCON	set	153
   999     0462                     _TRISA2	set	1122
  1000     04E9                     _GO_nDONE	set	1257
  1001     04E8                     _ADON	set	1256
  1002     088F                     _C1ON	set	2191
  1003     08D7                     _SRLEN	set	2263
  1004     018E                     _ANSELC	set	398
  1005     020E                     _WPUC	set	526
  1006     029E                     _CCPTMRS0	set	670
  1007     0313                     _CCP3CON	set	787
  1008     0311                     _CCPR3L	set	785
  1009                           
  1010                           	psect	cinit
  1011     07F1                     start_initialization:	
  1012                           ; #config settings
  1013                           
  1014     07F1                     __initialization:
  1015                           
  1016                           ; Clear objects allocated to BANK1
  1017     07F1  0021               	movlb	1	; select bank1
  1018     07F2  01BC               	clrf	__pbssBANK1& (0+127)
  1019     07F3  01BD               	clrf	(__pbssBANK1+1)& (0+127)
  1020     07F4  01BE               	clrf	(__pbssBANK1+2)& (0+127)
  1021     07F5  01BF               	clrf	(__pbssBANK1+3)& (0+127)
  1022     07F6  01C0               	clrf	(__pbssBANK1+4)& (0+127)
  1023     07F7  01C1               	clrf	(__pbssBANK1+5)& (0+127)
  1024     07F8  01C2               	clrf	(__pbssBANK1+6)& (0+127)
  1025     07F9  01C3               	clrf	(__pbssBANK1+7)& (0+127)
  1026                           
  1027                           ; Clear objects allocated to BANK2
  1028     07FA  0022               	movlb	2	; select bank2
  1029     07FB  01EE               	clrf	__pbssBANK2& (0+127)
  1030     07FC  01EF               	clrf	(__pbssBANK2+1)& (0+127)
  1031     07FD                     end_of_initialization:	
  1032                           ;End of C runtime variable initialization code
  1033                           
  1034     07FD                     __end_of__initialization:
  1035     07FD  0020               	movlb	0
  1036     07FE  318A  2AC9         	ljmp	_main	;jump to C main() function
  1037                           
  1038                           	psect	bssBANK1
  1039     00BC                     __pbssBANK1:
  1040     00BC                     log10f@F474:
  1041     00BC                     	ds	4
  1042     00C0                     _duty:
  1043     00C0                     	ds	2
  1044     00C2                     _current_speed_log:
  1045     00C2                     	ds	2
  1046                           
  1047                           	psect	bssBANK2
  1048     016E                     __pbssBANK2:
  1049     016E                     _errno:
  1050     016E                     	ds	2
  1051                           
  1052                           	psect	cstackBANK2
  1053     0120                     __pcstackBANK2:
  1054     0120                     log10f@R:
  1055                           
  1056                           ; 4 bytes @ 0x0
  1057     0120                     	ds	4
  1058     0124                     log10f@t1:
  1059                           
  1060                           ; 4 bytes @ 0x4
  1061     0124                     	ds	4
  1062     0128                     log10f@t2:
  1063                           
  1064                           ; 4 bytes @ 0x8
  1065     0128                     	ds	4
  1066     012C                     _log10f$765:
  1067                           
  1068                           ; 4 bytes @ 0xC
  1069     012C                     	ds	4
  1070     0130                     _log10f$767:
  1071                           
  1072                           ; 4 bytes @ 0x10
  1073     0130                     	ds	4
  1074     0134                     _log10f$768:
  1075                           
  1076                           ; 4 bytes @ 0x14
  1077     0134                     	ds	4
  1078     0138                     _log10f$769:
  1079                           
  1080                           ; 4 bytes @ 0x18
  1081     0138                     	ds	4
  1082     013C                     _log10f$770:
  1083                           
  1084                           ; 4 bytes @ 0x1C
  1085     013C                     	ds	4
  1086     0140                     log10f@k:
  1087                           
  1088                           ; 2 bytes @ 0x20
  1089     0140                     	ds	2
  1090     0142                     log10f@dk:
  1091                           
  1092                           ; 4 bytes @ 0x22
  1093     0142                     	ds	4
  1094     0146                     log10f@lo:
  1095                           
  1096                           ; 4 bytes @ 0x26
  1097     0146                     	ds	4
  1098     014A                     _log10f$766:
  1099                           
  1100                           ; 4 bytes @ 0x2A
  1101     014A                     	ds	4
  1102     014E                     log10f@hfsq:
  1103                           
  1104                           ; 4 bytes @ 0x2E
  1105     014E                     	ds	4
  1106     0152                     log10f@s:
  1107                           
  1108                           ; 4 bytes @ 0x32
  1109     0152                     	ds	4
  1110     0156                     log10f@z:
  1111                           
  1112                           ; 4 bytes @ 0x36
  1113     0156                     	ds	4
  1114     015A                     log10f@w:
  1115                           
  1116                           ; 4 bytes @ 0x3A
  1117     015A                     	ds	4
  1118     015E                     _log10f$764:
  1119                           
  1120                           ; 4 bytes @ 0x3E
  1121     015E                     	ds	4
  1122     0162                     log10f@hi:
  1123                           
  1124                           ; 4 bytes @ 0x42
  1125     0162                     	ds	4
  1126     0166                     log10f@f:
  1127                           
  1128                           ; 4 bytes @ 0x46
  1129     0166                     	ds	4
  1130     016A                     log10f@ux:
  1131                           
  1132                           ; 4 bytes @ 0x4A
  1133     016A                     	ds	4
  1134                           
  1135                           	psect	cstackBANK1
  1136     00A0                     __pcstackBANK1:
  1137     00A0                     ??_log10f:
  1138                           
  1139                           ; 1 bytes @ 0x0
  1140     00A0                     	ds	8
  1141     00A8                     ??___fltol:
  1142                           
  1143                           ; 1 bytes @ 0x8
  1144     00A8                     	ds	4
  1145     00AC                     ___fltol@sign1:
  1146                           
  1147                           ; 1 bytes @ 0xC
  1148     00AC                     	ds	1
  1149     00AD                     ___fltol@exp1:
  1150                           
  1151                           ; 1 bytes @ 0xD
  1152     00AD                     	ds	1
  1153     00AE                     ?_CONVERT_SPEED_TO_LOG:
  1154     00AE                     CONVERT_SPEED_TO_LOG@log_speed:	
  1155                           ; 1 bytes @ 0xE
  1156                           
  1157                           
  1158                           ; 1 bytes @ 0xE
  1159     00AE                     	ds	1
  1160     00AF                     ??_CONVERT_SPEED_TO_LOG:
  1161                           
  1162                           ; 1 bytes @ 0xF
  1163     00AF                     	ds	2
  1164     00B1                     _CONVERT_SPEED_TO_LOG$762:
  1165                           
  1166                           ; 4 bytes @ 0x11
  1167     00B1                     	ds	4
  1168     00B5                     _CONVERT_SPEED_TO_LOG$763:
  1169                           
  1170                           ; 4 bytes @ 0x15
  1171     00B5                     	ds	4
  1172     00B9                     CONVERT_SPEED_TO_LOG@temp:
  1173                           
  1174                           ; 2 bytes @ 0x19
  1175     00B9                     	ds	2
  1176     00BB                     CONVERT_SPEED_TO_LOG@linear_speed:
  1177                           
  1178                           ; 1 bytes @ 0x1B
  1179     00BB                     	ds	1
  1180                           
  1181                           	psect	cstackCOMMON
  1182     0070                     __pcstackCOMMON:
  1183     0070                     ?_CONFIG_INT_OSC:
  1184     0070                     ??_CONFIG_INT_OSC:	
  1185                           ; 1 bytes @ 0x0
  1186                           
  1187     0070                     ?_CONFIG_PORTS:	
  1188                           ; 1 bytes @ 0x0
  1189                           
  1190     0070                     ??_CONFIG_PORTS:	
  1191                           ; 1 bytes @ 0x0
  1192                           
  1193     0070                     ?_CONFIG_ADC_PINS:	
  1194                           ; 1 bytes @ 0x0
  1195                           
  1196     0070                     ??_CONFIG_ADC_PINS:	
  1197                           ; 1 bytes @ 0x0
  1198                           
  1199     0070                     ?_DETERMINE_WAVESHAPE:	
  1200                           ; 1 bytes @ 0x0
  1201                           
  1202     0070                     ?_CONFIG_PWM_CCP3:	
  1203                           ; 1 bytes @ 0x0
  1204                           
  1205     0070                     ??_CONFIG_PWM_CCP3:	
  1206                           ; 1 bytes @ 0x0
  1207                           
  1208     0070                     ?_main:	
  1209                           ; 1 bytes @ 0x0
  1210                           
  1211     0070                     ?__Umul8_16:	
  1212                           ; 1 bytes @ 0x0
  1213                           
  1214     0070                     ?_DO_ADC:	
  1215                           ; 2 bytes @ 0x0
  1216                           
  1217     0070                     ?___xxtofl:	
  1218                           ; 2 bytes @ 0x0
  1219                           
  1220     0070                     __Umul8_16@multiplicand:	
  1221                           ; 4 bytes @ 0x0
  1222                           
  1223     0070                     ___xxtofl@val:	
  1224                           ; 1 bytes @ 0x0
  1225                           
  1226                           
  1227                           ; 4 bytes @ 0x0
  1228     0070                     	ds	2
  1229     0072                     ??__Umul8_16:
  1230     0072                     ??_DO_ADC:	
  1231                           ; 1 bytes @ 0x2
  1232                           
  1233     0072                     DO_ADC@adc_result:	
  1234                           ; 1 bytes @ 0x2
  1235                           
  1236                           
  1237                           ; 2 bytes @ 0x2
  1238     0072                     	ds	2
  1239     0074                     ??___xxtofl:
  1240     0074                     DO_ADC@modifier:	
  1241                           ; 1 bytes @ 0x4
  1242                           
  1243     0074                     __Umul8_16@product:	
  1244                           ; 1 bytes @ 0x4
  1245                           
  1246                           
  1247                           ; 2 bytes @ 0x4
  1248     0074                     	ds	1
  1249     0075                     ??_DETERMINE_WAVESHAPE:
  1250     0075                     DETERMINE_WAVESHAPE@ADC:	
  1251                           ; 1 bytes @ 0x5
  1252                           
  1253                           
  1254                           ; 2 bytes @ 0x5
  1255     0075                     	ds	1
  1256     0076                     __Umul8_16@word_mpld:
  1257                           
  1258                           ; 2 bytes @ 0x6
  1259     0076                     	ds	2
  1260     0078                     __Umul8_16@multiplier:
  1261     0078                     ___xxtofl@sign:	
  1262                           ; 1 bytes @ 0x8
  1263                           
  1264                           
  1265                           ; 1 bytes @ 0x8
  1266     0078                     	ds	1
  1267     0079                     ___xxtofl@exp:
  1268                           
  1269                           ; 1 bytes @ 0x9
  1270     0079                     	ds	1
  1271     007A                     ___xxtofl@arg:
  1272                           
  1273                           ; 4 bytes @ 0xA
  1274     007A                     	ds	4
  1275     007E                     ??_main:
  1276     007E                     ??___flsub:	
  1277                           ; 1 bytes @ 0xE
  1278                           
  1279                           
  1280                           	psect	cstackBANK0
  1281     0020                     __pcstackBANK0:	
  1282                           ; 1 bytes @ 0xE
  1283                           
  1284     0020                     ?___flmul:
  1285     0020                     ___flmul@b:	
  1286                           ; 4 bytes @ 0x0
  1287                           
  1288                           
  1289                           ; 4 bytes @ 0x0
  1290     0020                     	ds	4
  1291     0024                     ___flmul@a:
  1292                           
  1293                           ; 4 bytes @ 0x4
  1294     0024                     	ds	4
  1295     0028                     ??___flmul:
  1296                           
  1297                           ; 1 bytes @ 0x8
  1298     0028                     	ds	5
  1299     002D                     ___flmul@sign:
  1300                           
  1301                           ; 1 bytes @ 0xD
  1302     002D                     	ds	1
  1303     002E                     ___flmul@grs:
  1304                           
  1305                           ; 4 bytes @ 0xE
  1306     002E                     	ds	4
  1307     0032                     ___flmul@aexp:
  1308                           
  1309                           ; 1 bytes @ 0x12
  1310     0032                     	ds	1
  1311     0033                     ___flmul@bexp:
  1312                           
  1313                           ; 1 bytes @ 0x13
  1314     0033                     	ds	1
  1315     0034                     ___flmul@prod:
  1316                           
  1317                           ; 4 bytes @ 0x14
  1318     0034                     	ds	4
  1319     0038                     ___flmul@temp:
  1320                           
  1321                           ; 2 bytes @ 0x18
  1322     0038                     	ds	2
  1323     003A                     ?___fladd:
  1324     003A                     ___fladd@b:	
  1325                           ; 4 bytes @ 0x1A
  1326                           
  1327                           
  1328                           ; 4 bytes @ 0x1A
  1329     003A                     	ds	4
  1330     003E                     ___fladd@a:
  1331                           
  1332                           ; 4 bytes @ 0x1E
  1333     003E                     	ds	4
  1334     0042                     ??___fladd:
  1335                           
  1336                           ; 1 bytes @ 0x22
  1337     0042                     	ds	8
  1338     004A                     ___fladd@signs:
  1339                           
  1340                           ; 1 bytes @ 0x2A
  1341     004A                     	ds	1
  1342     004B                     ___fladd@aexp:
  1343                           
  1344                           ; 1 bytes @ 0x2B
  1345     004B                     	ds	1
  1346     004C                     ___fladd@bexp:
  1347                           
  1348                           ; 1 bytes @ 0x2C
  1349     004C                     	ds	1
  1350     004D                     ___fladd@grs:
  1351                           
  1352                           ; 1 bytes @ 0x2D
  1353     004D                     	ds	1
  1354     004E                     ?___flsub:
  1355     004E                     ?___fldiv:	
  1356                           ; 4 bytes @ 0x2E
  1357                           
  1358     004E                     ___flsub@a:	
  1359                           ; 4 bytes @ 0x2E
  1360                           
  1361     004E                     ___fldiv@a:	
  1362                           ; 4 bytes @ 0x2E
  1363                           
  1364                           
  1365                           ; 4 bytes @ 0x2E
  1366     004E                     	ds	4
  1367     0052                     ___flsub@b:
  1368     0052                     ___fldiv@b:	
  1369                           ; 4 bytes @ 0x32
  1370                           
  1371                           
  1372                           ; 4 bytes @ 0x32
  1373     0052                     	ds	4
  1374     0056                     ??___fldiv:
  1375                           
  1376                           ; 1 bytes @ 0x36
  1377     0056                     	ds	5
  1378     005B                     ___fldiv@rem:
  1379                           
  1380                           ; 4 bytes @ 0x3B
  1381     005B                     	ds	4
  1382     005F                     ___fldiv@sign:
  1383                           
  1384                           ; 1 bytes @ 0x3F
  1385     005F                     	ds	1
  1386     0060                     ___fldiv@new_exp:
  1387                           
  1388                           ; 2 bytes @ 0x40
  1389     0060                     	ds	2
  1390     0062                     ___fldiv@grs:
  1391                           
  1392                           ; 4 bytes @ 0x42
  1393     0062                     	ds	4
  1394     0066                     ___fldiv@bexp:
  1395                           
  1396                           ; 1 bytes @ 0x46
  1397     0066                     	ds	1
  1398     0067                     ___fldiv@aexp:
  1399                           
  1400                           ; 1 bytes @ 0x47
  1401     0067                     	ds	1
  1402     0068                     ?_log10f:
  1403     0068                     log10f@x:	
  1404                           ; 4 bytes @ 0x48
  1405                           
  1406                           
  1407                           ; 4 bytes @ 0x48
  1408     0068                     	ds	4
  1409     006C                     ?___fltol:
  1410     006C                     ___fltol@f1:	
  1411                           ; 4 bytes @ 0x4C
  1412                           
  1413                           
  1414                           ; 4 bytes @ 0x4C
  1415     006C                     	ds	4
  1416                           
  1417                           	psect	maintext
  1418     0AC9                     __pmaintext:	
  1419 ;;
  1420 ;;Main: autosize = 0, tempsize = 0, incstack = 0, save=0
  1421 ;;
  1422 ;; *************** function _main *****************
  1423 ;; Defined at:
  1424 ;;		line 176 in file "main.c"
  1425 ;; Parameters:    Size  Location     Type
  1426 ;;		None
  1427 ;; Auto vars:     Size  Location     Type
  1428 ;;		None
  1429 ;; Return value:  Size  Location     Type
  1430 ;;                  1    wreg      void 
  1431 ;; Registers used:
  1432 ;;		wreg, fsr0l, fsr0h, fsr1l, fsr1h, status,2, status,0, pclath, cstack
  1433 ;; Tracked objects:
  1434 ;;		On entry : B1F/0
  1435 ;;		On exit  : 0/0
  1436 ;;		Unchanged: 0/0
  1437 ;; Data sizes:     COMMON   BANK0   BANK1   BANK2
  1438 ;;      Params:         0       0       0       0
  1439 ;;      Locals:         0       0       0       0
  1440 ;;      Temps:          0       0       0       0
  1441 ;;      Totals:         0       0       0       0
  1442 ;;Total ram usage:        0 bytes
  1443 ;; Hardware stack levels required when called: 4
  1444 ;; This function calls:
  1445 ;;		_CONFIG_ADC_PINS
  1446 ;;		_CONFIG_INT_OSC
  1447 ;;		_CONFIG_PORTS
  1448 ;;		_CONFIG_PWM_CCP3
  1449 ;;		_CONVERT_SPEED_TO_LOG
  1450 ;;		_DETERMINE_WAVESHAPE
  1451 ;;		_DO_ADC
  1452 ;; This function is called by:
  1453 ;;		Startup code after reset
  1454 ;; This function uses a non-reentrant model
  1455 ;;
  1456                           
  1457     0AC9                     _main:	
  1458                           ;psect for function _main
  1459                           
  1460                           
  1461                           ;main.c: 177:     CONFIG_INT_OSC();
  1462                           
  1463                           ;incstack = 0
  1464                           ; Regs used in _main: [wreg-fsr1h+status,2+status,0+pclath+cstack]
  1465     0AC9  318A  224A  318A   	fcall	_CONFIG_INT_OSC
  1466                           
  1467                           ;main.c: 178:     CONFIG_PORTS();
  1468     0ACC  318A  224E  318A   	fcall	_CONFIG_PORTS
  1469                           
  1470                           ;main.c: 179:     CONFIG_ADC_PINS();
  1471     0ACF  318A  2246  318A   	fcall	_CONFIG_ADC_PINS
  1472                           
  1473                           ;main.c: 180:     CONFIG_PWM_CCP3();
  1474     0AD2  318A  225A  318A   	fcall	_CONFIG_PWM_CCP3
  1475                           
  1476                           ;main.c: 183:         current_waveshape = DETERMINE_WAVESHAPE();
  1477     0AD5  318A  22A6  318A   	fcall	_DETERMINE_WAVESHAPE
  1478     0AD8  0021               	movlb	1	; select bank1
  1479     0AD9  00C6               	movwf	_current_waveshape^(0+128)
  1480                           
  1481                           ;main.c: 184:         current_speed_linear = DO_ADC(1);
  1482     0ADA  3001               	movlw	1
  1483     0ADB  318A  226D  318A   	fcall	_DO_ADC
  1484     0ADE  0871               	movf	?_DO_ADC+1,w
  1485     0ADF  0021               	movlb	1	; select bank1
  1486     0AE0  00C8               	movwf	(_current_speed_linear+1)^(0+128)
  1487     0AE1  0870               	movf	?_DO_ADC,w
  1488     0AE2  00C7               	movwf	_current_speed_linear^(0+128)
  1489                           
  1490                           ;main.c: 185:         current_depth = DO_ADC(2);
  1491     0AE3  3002               	movlw	2
  1492     0AE4  318A  226D  318A   	fcall	_DO_ADC
  1493     0AE7  0871               	movf	?_DO_ADC+1,w
  1494     0AE8  0021               	movlb	1	; select bank1
  1495     0AE9  00C5               	movwf	(_current_depth+1)^(0+128)
  1496     0AEA  0870               	movf	?_DO_ADC,w
  1497     0AEB  00C4               	movwf	_current_depth^(0+128)
  1498                           
  1499                           ;main.c: 187:         CONVERT_SPEED_TO_LOG(&current_speed_linear, &current_speed_log);
  1500     0AEC  30C2               	movlw	(low (_current_speed_log| 0))& (0+255)
  1501     0AED  00AE               	movwf	CONVERT_SPEED_TO_LOG@log_speed^(0+128)
  1502     0AEE  30C7               	movlw	(low (_current_speed_linear| 0))& (0+255)
  1503     0AEF  318B  2366  318A   	fcall	_CONVERT_SPEED_TO_LOG
  1504     0AF2                     l102:	
  1505                           ;main.c: 189:     while(1){
  1506                           
  1507                           
  1508                           ;main.c: 191:         }
  1509     0AF2  2AF2               	goto	l102
  1510     0AF3                     __end_of_main:
  1511                           
  1512                           	psect	text1
  1513     0AA6                     __ptext1:	
  1514 ;; *************** function _DETERMINE_WAVESHAPE *****************
  1515 ;; Defined at:
  1516 ;;		line 104 in file "main.c"
  1517 ;; Parameters:    Size  Location     Type
  1518 ;;		None
  1519 ;; Auto vars:     Size  Location     Type
  1520 ;;  ADC             2    5[COMMON] unsigned short 
  1521 ;; Return value:  Size  Location     Type
  1522 ;;                  1    wreg      unsigned char 
  1523 ;; Registers used:
  1524 ;;		wreg, fsr0l, fsr0h, status,2, status,0, pclath, cstack
  1525 ;; Tracked objects:
  1526 ;;		On entry : 0/0
  1527 ;;		On exit  : 0/0
  1528 ;;		Unchanged: 0/0
  1529 ;; Data sizes:     COMMON   BANK0   BANK1   BANK2
  1530 ;;      Params:         0       0       0       0
  1531 ;;      Locals:         2       0       0       0
  1532 ;;      Temps:          0       0       0       0
  1533 ;;      Totals:         2       0       0       0
  1534 ;;Total ram usage:        2 bytes
  1535 ;; Hardware stack levels used: 1
  1536 ;; Hardware stack levels required when called: 1
  1537 ;; This function calls:
  1538 ;;		_DO_ADC
  1539 ;; This function is called by:
  1540 ;;		_main
  1541 ;; This function uses a non-reentrant model
  1542 ;;
  1543                           
  1544     0AA6                     _DETERMINE_WAVESHAPE:	
  1545                           ;psect for function _DETERMINE_WAVESHAPE
  1546                           
  1547                           
  1548                           ;main.c: 105:     uint16_t ADC = DO_ADC(0);
  1549                           
  1550                           ;incstack = 0
  1551                           ; Regs used in _DETERMINE_WAVESHAPE: [wreg-fsr0h+status,2+status,0+pclath+cstack]
  1552     0AA6  3000               	movlw	0
  1553     0AA7  318A  226D  318A   	fcall	_DO_ADC
  1554     0AAA  0871               	movf	?_DO_ADC+1,w
  1555     0AAB  00F6               	movwf	DETERMINE_WAVESHAPE@ADC+1
  1556     0AAC  0870               	movf	?_DO_ADC,w
  1557     0AAD  00F5               	movwf	DETERMINE_WAVESHAPE@ADC
  1558                           
  1559                           ;main.c: 106:     if(ADC <= 341){
  1560     0AAE  3001               	movlw	1
  1561     0AAF  0276               	subwf	DETERMINE_WAVESHAPE@ADC+1,w
  1562     0AB0  3056               	movlw	86
  1563     0AB1  1903               	skipnz
  1564     0AB2  0275               	subwf	DETERMINE_WAVESHAPE@ADC,w
  1565     0AB3  1803               	skipnc
  1566     0AB4  2AB7               	goto	l2195
  1567                           
  1568                           ;main.c: 107:             return 0;
  1569     0AB5  3000               	movlw	0
  1570     0AB6  0008               	return
  1571     0AB7                     l2195:
  1572                           
  1573                           ;main.c: 109:         if (ADC <= 682){
  1574     0AB7  3002               	movlw	2
  1575     0AB8  0276               	subwf	DETERMINE_WAVESHAPE@ADC+1,w
  1576     0AB9  30AB               	movlw	171
  1577     0ABA  1903               	skipnz
  1578     0ABB  0275               	subwf	DETERMINE_WAVESHAPE@ADC,w
  1579     0ABC  1803               	skipnc
  1580     0ABD  2AC0               	goto	l2201
  1581     0ABE                     l2197:
  1582                           
  1583                           ;main.c: 110:             return 1;
  1584     0ABE  3001               	movlw	1
  1585     0ABF  0008               	return
  1586     0AC0                     l2201:
  1587                           
  1588                           ;main.c: 112:         if (ADC <= 1023){
  1589     0AC0  3004               	movlw	4
  1590     0AC1  0276               	subwf	DETERMINE_WAVESHAPE@ADC+1,w
  1591     0AC2  3000               	movlw	0
  1592     0AC3  1903               	skipnz
  1593     0AC4  0275               	subwf	DETERMINE_WAVESHAPE@ADC,w
  1594     0AC5  1803               	skipnc
  1595     0AC6  2ABE               	goto	l2197
  1596                           
  1597                           ;main.c: 113:             return 2;
  1598     0AC7  3002               	movlw	2
  1599     0AC8  0008               	return
  1600     0AC9                     __end_of_DETERMINE_WAVESHAPE:
  1601                           
  1602                           	psect	text2
  1603     0A6D                     __ptext2:	
  1604 ;; *************** function _DO_ADC *****************
  1605 ;; Defined at:
  1606 ;;		line 87 in file "main.c"
  1607 ;; Parameters:    Size  Location     Type
  1608 ;;  modifier        1    wreg     unsigned char 
  1609 ;; Auto vars:     Size  Location     Type
  1610 ;;  modifier        1    4[COMMON] unsigned char 
  1611 ;;  adc_result      2    2[COMMON] unsigned short 
  1612 ;; Return value:  Size  Location     Type
  1613 ;;                  2    0[COMMON] unsigned short 
  1614 ;; Registers used:
  1615 ;;		wreg, fsr0l, fsr0h, status,2, status,0, pclath
  1616 ;; Tracked objects:
  1617 ;;		On entry : 0/0
  1618 ;;		On exit  : 0/0
  1619 ;;		Unchanged: 0/0
  1620 ;; Data sizes:     COMMON   BANK0   BANK1   BANK2
  1621 ;;      Params:         2       0       0       0
  1622 ;;      Locals:         3       0       0       0
  1623 ;;      Temps:          0       0       0       0
  1624 ;;      Totals:         5       0       0       0
  1625 ;;Total ram usage:        5 bytes
  1626 ;; Hardware stack levels used: 1
  1627 ;; This function calls:
  1628 ;;		Nothing
  1629 ;; This function is called by:
  1630 ;;		_DETERMINE_WAVESHAPE
  1631 ;;		_main
  1632 ;; This function uses a non-reentrant model
  1633 ;;
  1634                           
  1635     0A6D                     _DO_ADC:	
  1636                           ;psect for function _DO_ADC
  1637                           
  1638                           
  1639                           ;incstack = 0
  1640                           ; Regs used in _DO_ADC: [wreg-fsr0h+status,2+status,0+pclath]
  1641                           ;DO_ADC@modifier stored from wreg
  1642     0A6D  00F4               	movwf	DO_ADC@modifier
  1643                           
  1644                           ;main.c: 95:     ADCON0 = ADCON0 | A2D_lookup[modifier];
  1645     0A6E  0874               	movf	DO_ADC@modifier,w
  1646     0A6F  3E20               	addlw	low (_A2D_lookup| (0+32768))
  1647     0A70  0084               	movwf	4
  1648     0A71  308A               	movlw	high (_A2D_lookup| (0+32768))
  1649     0A72  1803               	skipnc
  1650     0A73  3E01               	addlw	1
  1651     0A74  0085               	movwf	5
  1652     0A75  0800               	movf	0,w	;code access
  1653     0A76  0021               	movlb	1	; select bank1
  1654     0A77  041D               	iorwf	29,w	;volatile
  1655     0A78  009D               	movwf	29	;volatile
  1656                           
  1657                           ;main.c: 96:         ADON = 1;
  1658     0A79  141D               	bsf	29,0	;volatile
  1659                           
  1660                           ;main.c: 97:         GO_nDONE = 1;
  1661     0A7A  149D               	bsf	29,1	;volatile
  1662     0A7B                     l70:	
  1663                           ;main.c: 98:         while(GO_nDONE == 1){}
  1664                           
  1665     0A7B  189D               	btfsc	29,1	;volatile
  1666     0A7C  2A7B               	goto	l70
  1667                           
  1668                           ;main.c: 99:         ADON = 0;
  1669     0A7D  101D               	bcf	29,0	;volatile
  1670                           
  1671                           ;main.c: 100:         uint16_t adc_result = ((ADRESH << 8) | ADRESL);
  1672     0A7E  081C               	movf	28,w	;volatile
  1673     0A7F  00F3               	movwf	DO_ADC@adc_result+1
  1674     0A80  081B               	movf	27,w	;volatile
  1675     0A81  00F2               	movwf	DO_ADC@adc_result
  1676                           
  1677                           ;main.c: 101:         return adc_result;
  1678     0A82  0873               	movf	DO_ADC@adc_result+1,w
  1679     0A83  00F1               	movwf	?_DO_ADC+1
  1680     0A84  0872               	movf	DO_ADC@adc_result,w
  1681     0A85  00F0               	movwf	?_DO_ADC
  1682     0A86  0008               	return
  1683     0A87                     __end_of_DO_ADC:
  1684                           
  1685                           	psect	text3
  1686     0B66                     __ptext3:	
  1687 ;; *************** function _CONVERT_SPEED_TO_LOG *****************
  1688 ;; Defined at:
  1689 ;;		line 120 in file "main.c"
  1690 ;; Parameters:    Size  Location     Type
  1691 ;;  linear_speed    1    wreg     PTR unsigned short 
  1692 ;;		 -> current_speed_linear(2), 
  1693 ;;  log_speed       1   14[BANK1 ] PTR unsigned short 
  1694 ;;		 -> current_speed_log(2), 
  1695 ;; Auto vars:     Size  Location     Type
  1696 ;;  linear_speed    1   27[BANK1 ] PTR unsigned short 
  1697 ;;		 -> current_speed_linear(2), 
  1698 ;;  temp            2   25[BANK1 ] unsigned short 
  1699 ;; Return value:  Size  Location     Type
  1700 ;;                  1    wreg      void 
  1701 ;; Registers used:
  1702 ;;		wreg, fsr1l, fsr1h, status,2, status,0, pclath, cstack
  1703 ;; Tracked objects:
  1704 ;;		On entry : 0/0
  1705 ;;		On exit  : 0/0
  1706 ;;		Unchanged: 0/0
  1707 ;; Data sizes:     COMMON   BANK0   BANK1   BANK2
  1708 ;;      Params:         0       0       1       0
  1709 ;;      Locals:         0       0      11       0
  1710 ;;      Temps:          0       0       2       0
  1711 ;;      Totals:         0       0      14       0
  1712 ;;Total ram usage:       14 bytes
  1713 ;; Hardware stack levels used: 1
  1714 ;; Hardware stack levels required when called: 3
  1715 ;; This function calls:
  1716 ;;		___flmul
  1717 ;;		___fltol
  1718 ;;		___xxtofl
  1719 ;;		_log10f
  1720 ;; This function is called by:
  1721 ;;		_main
  1722 ;; This function uses a non-reentrant model
  1723 ;;
  1724                           
  1725     0B66                     _CONVERT_SPEED_TO_LOG:	
  1726                           ;psect for function _CONVERT_SPEED_TO_LOG
  1727                           
  1728                           
  1729                           ;incstack = 0
  1730                           ; Regs used in _CONVERT_SPEED_TO_LOG: [wreg+fsr1l+fsr1h+status,2+status,0+pclath+cstack]
  1731                           ;CONVERT_SPEED_TO_LOG@linear_speed stored from wreg
  1732     0B66  0021               	movlb	1	; select bank1
  1733     0B67  00BB               	movwf	CONVERT_SPEED_TO_LOG@linear_speed^(0+128)
  1734                           
  1735                           ;main.c: 123:     if(*linear_speed==0){
  1736     0B68  083B               	movf	CONVERT_SPEED_TO_LOG@linear_speed^(0+128),w
  1737     0B69  0086               	movwf	6
  1738     0B6A  0187               	clrf	7
  1739     0B6B  0016               	moviw fsr1++
  1740     0B6C  0401               	iorwf	1,w
  1741     0B6D  1D03               	btfss	3,2
  1742     0B6E  2B76               	goto	l2217
  1743                           
  1744                           ;main.c: 124:         *log_speed=0;
  1745     0B6F  082E               	movf	CONVERT_SPEED_TO_LOG@log_speed^(0+128),w
  1746     0B70  0086               	movwf	6
  1747     0B71  0187               	clrf	7
  1748     0B72  3000               	movlw	0
  1749     0B73  3FC0               	movwi [0]fsr1
  1750     0B74  3FC1               	movwi [1]fsr1
  1751                           
  1752                           ;main.c: 125:     }
  1753     0B75  0008               	return
  1754     0B76                     l2217:
  1755                           
  1756                           ;main.c: 127:     uint16_t temp = 341*log10f(*linear_speed);
  1757     0B76  083B               	movf	CONVERT_SPEED_TO_LOG@linear_speed^(0+128),w
  1758     0B77  0086               	movwf	6
  1759     0B78  0187               	clrf	7
  1760     0B79  3F40               	moviw [0]fsr1
  1761     0B7A  00AF               	movwf	??_CONVERT_SPEED_TO_LOG^(0+128)
  1762     0B7B  3F41               	moviw [1]fsr1
  1763     0B7C  00B0               	movwf	(??_CONVERT_SPEED_TO_LOG^(0+128)+1)
  1764     0B7D  082F               	movf	??_CONVERT_SPEED_TO_LOG^(0+128),w
  1765     0B7E  00F0               	movwf	___xxtofl@val
  1766     0B7F  0830               	movf	(??_CONVERT_SPEED_TO_LOG+1)^(0+128),w
  1767     0B80  00F1               	movwf	___xxtofl@val+1
  1768     0B81  01F2               	clrf	___xxtofl@val+2
  1769     0B82  01F3               	clrf	___xxtofl@val+3
  1770     0B83  3000               	movlw	0
  1771     0B84  318B  23ED  318B   	fcall	___xxtofl
  1772     0B87  0873               	movf	?___xxtofl+3,w
  1773     0B88  0021               	movlb	1	; select bank1
  1774     0B89  00B4               	movwf	(_CONVERT_SPEED_TO_LOG$762+3)^(0+128)
  1775     0B8A  0872               	movf	?___xxtofl+2,w
  1776     0B8B  00B3               	movwf	(_CONVERT_SPEED_TO_LOG$762+2)^(0+128)
  1777     0B8C  0871               	movf	?___xxtofl+1,w
  1778     0B8D  00B2               	movwf	(_CONVERT_SPEED_TO_LOG$762+1)^(0+128)
  1779     0B8E  0870               	movf	?___xxtofl,w
  1780     0B8F  00B1               	movwf	_CONVERT_SPEED_TO_LOG$762^(0+128)
  1781                           
  1782                           ;main.c: 127:     uint16_t temp = 341*log10f(*linear_speed);
  1783     0B90  0834               	movf	(_CONVERT_SPEED_TO_LOG$762+3)^(0+128),w
  1784     0B91  0020               	movlb	0	; select bank0
  1785     0B92  00EB               	movwf	log10f@x+3
  1786     0B93  0021               	movlb	1	; select bank1
  1787     0B94  0833               	movf	(_CONVERT_SPEED_TO_LOG$762+2)^(0+128),w
  1788     0B95  0020               	movlb	0	; select bank0
  1789     0B96  00EA               	movwf	log10f@x+2
  1790     0B97  0021               	movlb	1	; select bank1
  1791     0B98  0832               	movf	(_CONVERT_SPEED_TO_LOG$762+1)^(0+128),w
  1792     0B99  0020               	movlb	0	; select bank0
  1793     0B9A  00E9               	movwf	log10f@x+1
  1794     0B9B  0021               	movlb	1	; select bank1
  1795     0B9C  0831               	movf	_CONVERT_SPEED_TO_LOG$762^(0+128),w
  1796     0B9D  0020               	movlb	0	; select bank0
  1797     0B9E  00E8               	movwf	log10f@x
  1798     0B9F  3181  21D6  318B   	fcall	_log10f
  1799     0BA2  0020               	movlb	0	; select bank0
  1800     0BA3  086B               	movf	?_log10f+3,w
  1801     0BA4  0021               	movlb	1	; select bank1
  1802     0BA5  00B8               	movwf	(_CONVERT_SPEED_TO_LOG$763+3)^(0+128)
  1803     0BA6  0020               	movlb	0	; select bank0
  1804     0BA7  086A               	movf	?_log10f+2,w
  1805     0BA8  0021               	movlb	1	; select bank1
  1806     0BA9  00B7               	movwf	(_CONVERT_SPEED_TO_LOG$763+2)^(0+128)
  1807     0BAA  0020               	movlb	0	; select bank0
  1808     0BAB  0869               	movf	?_log10f+1,w
  1809     0BAC  0021               	movlb	1	; select bank1
  1810     0BAD  00B6               	movwf	(_CONVERT_SPEED_TO_LOG$763+1)^(0+128)
  1811     0BAE  0020               	movlb	0	; select bank0
  1812     0BAF  0868               	movf	?_log10f,w
  1813     0BB0  0021               	movlb	1	; select bank1
  1814     0BB1  00B5               	movwf	_CONVERT_SPEED_TO_LOG$763^(0+128)
  1815                           
  1816                           ;main.c: 127:     uint16_t temp = 341*log10f(*linear_speed);
  1817     0BB2  0838               	movf	(_CONVERT_SPEED_TO_LOG$763+3)^(0+128),w
  1818     0BB3  0020               	movlb	0	; select bank0
  1819     0BB4  00A7               	movwf	___flmul@a+3
  1820     0BB5  0021               	movlb	1	; select bank1
  1821     0BB6  0837               	movf	(_CONVERT_SPEED_TO_LOG$763+2)^(0+128),w
  1822     0BB7  0020               	movlb	0	; select bank0
  1823     0BB8  00A6               	movwf	___flmul@a+2
  1824     0BB9  0021               	movlb	1	; select bank1
  1825     0BBA  0836               	movf	(_CONVERT_SPEED_TO_LOG$763+1)^(0+128),w
  1826     0BBB  0020               	movlb	0	; select bank0
  1827     0BBC  00A5               	movwf	___flmul@a+1
  1828     0BBD  0021               	movlb	1	; select bank1
  1829     0BBE  0835               	movf	_CONVERT_SPEED_TO_LOG$763^(0+128),w
  1830     0BBF  0020               	movlb	0	; select bank0
  1831     0BC0  00A4               	movwf	___flmul@a
  1832     0BC1  3043               	movlw	67
  1833     0BC2  00A3               	movwf	___flmul@b+3
  1834     0BC3  30AA               	movlw	170
  1835     0BC4  00A2               	movwf	___flmul@b+2
  1836     0BC5  3080               	movlw	128
  1837     0BC6  00A1               	movwf	___flmul@b+1
  1838     0BC7  3000               	movlw	0
  1839     0BC8  00A0               	movwf	___flmul@b
  1840     0BC9  318D  25F0  318B   	fcall	___flmul
  1841     0BCC  0020               	movlb	0	; select bank0
  1842     0BCD  0823               	movf	?___flmul+3,w
  1843     0BCE  00EF               	movwf	___fltol@f1+3
  1844     0BCF  0822               	movf	?___flmul+2,w
  1845     0BD0  00EE               	movwf	___fltol@f1+2
  1846     0BD1  0821               	movf	?___flmul+1,w
  1847     0BD2  00ED               	movwf	___fltol@f1+1
  1848     0BD3  0820               	movf	?___flmul,w
  1849     0BD4  00EC               	movwf	___fltol@f1
  1850     0BD5  318A  22F3         	fcall	___fltol
  1851     0BD7  0020               	movlb	0	; select bank0
  1852     0BD8  086D               	movf	?___fltol+1,w
  1853     0BD9  0021               	movlb	1	; select bank1
  1854     0BDA  00BA               	movwf	(CONVERT_SPEED_TO_LOG@temp+1)^(0+128)
  1855     0BDB  0020               	movlb	0	; select bank0
  1856     0BDC  086C               	movf	?___fltol,w
  1857     0BDD  0021               	movlb	1	; select bank1
  1858     0BDE  00B9               	movwf	CONVERT_SPEED_TO_LOG@temp^(0+128)
  1859                           
  1860                           ;main.c: 128:     *log_speed = temp & 0b0000001111111111;
  1861     0BDF  30FF               	movlw	255
  1862     0BE0  0539               	andwf	CONVERT_SPEED_TO_LOG@temp^(0+128),w
  1863     0BE1  00AF               	movwf	??_CONVERT_SPEED_TO_LOG^(0+128)
  1864     0BE2  3003               	movlw	3
  1865     0BE3  053A               	andwf	(CONVERT_SPEED_TO_LOG@temp+1)^(0+128),w
  1866     0BE4  00B0               	movwf	(??_CONVERT_SPEED_TO_LOG+1)^(0+128)
  1867     0BE5  082E               	movf	CONVERT_SPEED_TO_LOG@log_speed^(0+128),w
  1868     0BE6  0086               	movwf	6
  1869     0BE7  0187               	clrf	7
  1870     0BE8  082F               	movf	??_CONVERT_SPEED_TO_LOG^(0+128),w
  1871     0BE9  3FC0               	movwi [0]fsr1
  1872     0BEA  0830               	movf	(??_CONVERT_SPEED_TO_LOG+1)^(0+128),w
  1873     0BEB  3FC1               	movwi [1]fsr1
  1874     0BEC  0008               	return
  1875     0BED                     __end_of_CONVERT_SPEED_TO_LOG:
  1876                           
  1877                           	psect	text4
  1878     01D6                     __ptext4:	
  1879 ;; *************** function _log10f *****************
  1880 ;; Defined at:
  1881 ;;		line 31 in file "/Applications/microchip/xc8/v2.45/pic/sources/c99/common/log10f.c"
  1882 ;; Parameters:    Size  Location     Type
  1883 ;;  x               4   72[BANK0 ] float 
  1884 ;; Auto vars:     Size  Location     Type
  1885 ;;  ux              4   74[BANK2 ] struct .
  1886 ;;  f               4   70[BANK2 ] float 
  1887 ;;  hi              4   66[BANK2 ] float 
  1888 ;;  w               4   58[BANK2 ] float 
  1889 ;;  z               4   54[BANK2 ] float 
  1890 ;;  s               4   50[BANK2 ] float 
  1891 ;;  hfsq            4   46[BANK2 ] float 
  1892 ;;  lo              4   38[BANK2 ] float 
  1893 ;;  dk              4   34[BANK2 ] float 
  1894 ;;  t2              4    8[BANK2 ] float 
  1895 ;;  t1              4    4[BANK2 ] float 
  1896 ;;  R               4    0[BANK2 ] float 
  1897 ;;  k               2   32[BANK2 ] int 
  1898 ;; Return value:  Size  Location     Type
  1899 ;;                  4   72[BANK0 ] float 
  1900 ;; Registers used:
  1901 ;;		wreg, status,2, status,0, pclath, cstack
  1902 ;; Tracked objects:
  1903 ;;		On entry : 0/0
  1904 ;;		On exit  : 0/0
  1905 ;;		Unchanged: 0/0
  1906 ;; Data sizes:     COMMON   BANK0   BANK1   BANK2
  1907 ;;      Params:         0       4       0       0
  1908 ;;      Locals:         0       0       0      78
  1909 ;;      Temps:          0       0       8       0
  1910 ;;      Totals:         0       4       8      78
  1911 ;;Total ram usage:       90 bytes
  1912 ;; Hardware stack levels used: 1
  1913 ;; Hardware stack levels required when called: 2
  1914 ;; This function calls:
  1915 ;;		___fladd
  1916 ;;		___fldiv
  1917 ;;		___flmul
  1918 ;;		___flsub
  1919 ;;		___xxtofl
  1920 ;; This function is called by:
  1921 ;;		_CONVERT_SPEED_TO_LOG
  1922 ;; This function uses a non-reentrant model
  1923 ;;
  1924                           
  1925     01D6                     _log10f:	
  1926                           ;psect for function _log10f
  1927                           
  1928                           
  1929                           ;incstack = 0
  1930                           ; Regs used in _log10f: [wreg+status,2+status,0+pclath+cstack]
  1931     01D6  0021               	movlb	1	; select bank1
  1932     01D7  083F               	movf	(log10f@F474+3)^(0+128),w
  1933     01D8  0022               	movlb	2	; select bank2
  1934     01D9  00ED               	movwf	(log10f@ux+3)^(0+256)
  1935     01DA  0021               	movlb	1	; select bank1
  1936     01DB  083E               	movf	(log10f@F474+2)^(0+128),w
  1937     01DC  0022               	movlb	2	; select bank2
  1938     01DD  00EC               	movwf	(log10f@ux+2)^(0+256)
  1939     01DE  0021               	movlb	1	; select bank1
  1940     01DF  083D               	movf	(log10f@F474+1)^(0+128),w
  1941     01E0  0022               	movlb	2	; select bank2
  1942     01E1  00EB               	movwf	(log10f@ux+1)^(0+256)
  1943     01E2  0021               	movlb	1	; select bank1
  1944     01E3  083C               	movf	log10f@F474^(0+128),w
  1945     01E4  0022               	movlb	2	; select bank2
  1946     01E5  00EA               	movwf	log10f@ux^(0+256)
  1947     01E6  0020               	movlb	0	; select bank0
  1948     01E7  086B               	movf	log10f@x+3,w
  1949     01E8  0022               	movlb	2	; select bank2
  1950     01E9  00ED               	movwf	(log10f@ux+3)^(0+256)
  1951     01EA  0020               	movlb	0	; select bank0
  1952     01EB  086A               	movf	log10f@x+2,w
  1953     01EC  0022               	movlb	2	; select bank2
  1954     01ED  00EC               	movwf	(log10f@ux+2)^(0+256)
  1955     01EE  0020               	movlb	0	; select bank0
  1956     01EF  0869               	movf	log10f@x+1,w
  1957     01F0  0022               	movlb	2	; select bank2
  1958     01F1  00EB               	movwf	(log10f@ux+1)^(0+256)
  1959     01F2  0020               	movlb	0	; select bank0
  1960     01F3  0868               	movf	log10f@x,w
  1961     01F4  0022               	movlb	2	; select bank2
  1962     01F5  00EA               	movwf	log10f@ux^(0+256)
  1963     01F6  01C0               	clrf	log10f@k^(0+256)
  1964     01F7  01C1               	clrf	(log10f@k+1)^(0+256)
  1965     01F8  086D               	movf	(log10f@ux+3)^(0+256),w
  1966     01F9  1D03               	btfss	3,2
  1967     01FA  29FF               	goto	l2055
  1968     01FB  3080               	movlw	128
  1969     01FC  026C               	subwf	(log10f@ux+2)^(0+256),w
  1970     01FD  1C03               	btfss	3,0
  1971     01FE  2A02               	goto	l2057
  1972     01FF                     l2055:
  1973     01FF  0022               	movlb	2	; select bank2
  1974     0200  1FED               	btfss	(log10f@ux+3)^(0+256),7
  1975     0201  2A88               	goto	l2073
  1976     0202                     l2057:
  1977     0202  0022               	movlb	2	; select bank2
  1978     0203  086A               	movf	log10f@ux^(0+256),w
  1979     0204  0021               	movlb	1	; select bank1
  1980     0205  00A0               	movwf	??_log10f^(0+128)
  1981     0206  0022               	movlb	2	; select bank2
  1982     0207  086B               	movf	(log10f@ux+1)^(0+256),w
  1983     0208  0021               	movlb	1	; select bank1
  1984     0209  00A1               	movwf	(??_log10f^(0+128)+1)
  1985     020A  0022               	movlb	2	; select bank2
  1986     020B  086C               	movf	(log10f@ux+2)^(0+256),w
  1987     020C  0021               	movlb	1	; select bank1
  1988     020D  00A2               	movwf	(??_log10f^(0+128)+2)
  1989     020E  0022               	movlb	2	; select bank2
  1990     020F  086D               	movf	(log10f@ux+3)^(0+256),w
  1991     0210  0021               	movlb	1	; select bank1
  1992     0211  00A3               	movwf	(??_log10f^(0+128)+3)
  1993     0212  3001               	movlw	1
  1994     0213                     u2595:
  1995     0213  35A0               	lslf	??_log10f^(0+128),f
  1996     0214  0DA1               	rlf	(??_log10f^(0+128)+1),f
  1997     0215  0DA2               	rlf	(??_log10f^(0+128)+2),f
  1998     0216  0DA3               	rlf	(??_log10f^(0+128)+3),f
  1999     0217  0B89               	decfsz	9,f
  2000     0218  2A13               	goto	u2595
  2001     0219  0823               	movf	(??_log10f+3)^(0+128),w
  2002     021A  0422               	iorwf	(??_log10f+2)^(0+128),w
  2003     021B  0421               	iorwf	(??_log10f+1)^(0+128),w
  2004     021C  0420               	iorwf	??_log10f^(0+128),w
  2005     021D  1D03               	skipz
  2006     021E  2A38               	goto	l737
  2007     021F  30FF               	movlw	255
  2008     0220  0022               	movlb	2	; select bank2
  2009     0221  00ED               	movwf	(log10f@ux+3)^(0+256)
  2010     0222  3080               	movlw	128
  2011     0223  00EC               	movwf	(log10f@ux+2)^(0+256)
  2012     0224  3000               	movlw	0
  2013     0225  00EB               	movwf	(log10f@ux+1)^(0+256)
  2014     0226  3000               	movlw	0
  2015     0227  00EA               	movwf	log10f@ux^(0+256)
  2016     0228  086D               	movf	(log10f@ux+3)^(0+256),w
  2017     0229  0020               	movlb	0	; select bank0
  2018     022A  00EB               	movwf	?_log10f+3
  2019     022B  0022               	movlb	2	; select bank2
  2020     022C  086C               	movf	(log10f@ux+2)^(0+256),w
  2021     022D  0020               	movlb	0	; select bank0
  2022     022E  00EA               	movwf	?_log10f+2
  2023     022F  0022               	movlb	2	; select bank2
  2024     0230  086B               	movf	(log10f@ux+1)^(0+256),w
  2025     0231  0020               	movlb	0	; select bank0
  2026     0232  00E9               	movwf	?_log10f+1
  2027     0233  0022               	movlb	2	; select bank2
  2028     0234  086A               	movf	log10f@ux^(0+256),w
  2029     0235  0020               	movlb	0	; select bank0
  2030     0236  00E8               	movwf	?_log10f
  2031     0237  0008               	return
  2032     0238                     l737:
  2033     0238  0022               	movlb	2	; select bank2
  2034     0239  1FED               	btfss	(log10f@ux+3)^(0+256),7
  2035     023A  2A57               	goto	l2067
  2036     023B  3021               	movlw	33
  2037     023C  00EE               	movwf	_errno^(0+256)
  2038     023D  3000               	movlw	0
  2039     023E  00EF               	movwf	(_errno^(0+256)+1)
  2040     023F  307F               	movlw	127
  2041     0240  00ED               	movwf	(log10f@ux+3)^(0+256)
  2042     0241  30FF               	movlw	255
  2043     0242  00EC               	movwf	(log10f@ux+2)^(0+256)
  2044     0243  30FF               	movlw	255
  2045     0244  00EB               	movwf	(log10f@ux+1)^(0+256)
  2046     0245  30FF               	movlw	255
  2047     0246  00EA               	movwf	log10f@ux^(0+256)
  2048     0247  086D               	movf	(log10f@ux+3)^(0+256),w
  2049     0248  0020               	movlb	0	; select bank0
  2050     0249  00EB               	movwf	?_log10f+3
  2051     024A  0022               	movlb	2	; select bank2
  2052     024B  086C               	movf	(log10f@ux+2)^(0+256),w
  2053     024C  0020               	movlb	0	; select bank0
  2054     024D  00EA               	movwf	?_log10f+2
  2055     024E  0022               	movlb	2	; select bank2
  2056     024F  086B               	movf	(log10f@ux+1)^(0+256),w
  2057     0250  0020               	movlb	0	; select bank0
  2058     0251  00E9               	movwf	?_log10f+1
  2059     0252  0022               	movlb	2	; select bank2
  2060     0253  086A               	movf	log10f@ux^(0+256),w
  2061     0254  0020               	movlb	0	; select bank0
  2062     0255  00E8               	movwf	?_log10f
  2063     0256  0008               	return
  2064     0257                     l2067:
  2065     0257  30E7               	movlw	231
  2066     0258  07C0               	addwf	log10f@k^(0+256),f
  2067     0259  30FF               	movlw	255
  2068     025A  3DC1               	addwfc	(log10f@k+1)^(0+256),f
  2069     025B  304C               	movlw	76
  2070     025C  0020               	movlb	0	; select bank0
  2071     025D  00A3               	movwf	___flmul@b+3
  2072     025E  3000               	movlw	0
  2073     025F  00A2               	movwf	___flmul@b+2
  2074     0260  3000               	movlw	0
  2075     0261  00A1               	movwf	___flmul@b+1
  2076     0262  3000               	movlw	0
  2077     0263  00A0               	movwf	___flmul@b
  2078     0264  086B               	movf	log10f@x+3,w
  2079     0265  00A7               	movwf	___flmul@a+3
  2080     0266  086A               	movf	log10f@x+2,w
  2081     0267  00A6               	movwf	___flmul@a+2
  2082     0268  0869               	movf	log10f@x+1,w
  2083     0269  00A5               	movwf	___flmul@a+1
  2084     026A  0868               	movf	log10f@x,w
  2085     026B  00A4               	movwf	___flmul@a
  2086     026C  318D  25F0  3181   	fcall	___flmul
  2087     026F  0020               	movlb	0	; select bank0
  2088     0270  0823               	movf	?___flmul+3,w
  2089     0271  00EB               	movwf	log10f@x+3
  2090     0272  0822               	movf	?___flmul+2,w
  2091     0273  00EA               	movwf	log10f@x+2
  2092     0274  0821               	movf	?___flmul+1,w
  2093     0275  00E9               	movwf	log10f@x+1
  2094     0276  0820               	movf	?___flmul,w
  2095     0277  00E8               	movwf	log10f@x
  2096     0278  086B               	movf	log10f@x+3,w
  2097     0279  0022               	movlb	2	; select bank2
  2098     027A  00ED               	movwf	(log10f@ux+3)^(0+256)
  2099     027B  0020               	movlb	0	; select bank0
  2100     027C  086A               	movf	log10f@x+2,w
  2101     027D  0022               	movlb	2	; select bank2
  2102     027E  00EC               	movwf	(log10f@ux+2)^(0+256)
  2103     027F  0020               	movlb	0	; select bank0
  2104     0280  0869               	movf	log10f@x+1,w
  2105     0281  0022               	movlb	2	; select bank2
  2106     0282  00EB               	movwf	(log10f@ux+1)^(0+256)
  2107     0283  0020               	movlb	0	; select bank0
  2108     0284  0868               	movf	log10f@x,w
  2109     0285  0022               	movlb	2	; select bank2
  2110     0286  00EA               	movwf	log10f@ux^(0+256)
  2111     0287  2AA2               	goto	l2085
  2112     0288                     l2073:
  2113     0288  3080               	movlw	128
  2114     0289  026C               	subwf	(log10f@ux+2)^(0+256),w
  2115     028A  307F               	movlw	127
  2116     028B  3B6D               	subwfb	(log10f@ux+3)^(0+256),w
  2117     028C  1803               	btfsc	3,0
  2118     028D  0008               	return
  2119     028E  3080               	movlw	128
  2120     028F  0022               	movlb	2	; select bank2
  2121     0290  066C               	xorwf	(log10f@ux+2)^(0+256),w
  2122     0291  303F               	movlw	63
  2123     0292  1903               	skipnz
  2124     0293  066D               	xorwf	(log10f@ux+3)^(0+256),w
  2125     0294  046A               	iorwf	log10f@ux^(0+256),w
  2126     0295  046B               	iorwf	(log10f@ux+1)^(0+256),w
  2127     0296  1D03               	btfss	3,2
  2128     0297  2AA2               	goto	l2085
  2129     0298  3000               	movlw	0
  2130     0299  0020               	movlb	0	; select bank0
  2131     029A  00EB               	movwf	?_log10f+3
  2132     029B  3000               	movlw	0
  2133     029C  00EA               	movwf	?_log10f+2
  2134     029D  3000               	movlw	0
  2135     029E  00E9               	movwf	?_log10f+1
  2136     029F  3000               	movlw	0
  2137     02A0  00E8               	movwf	?_log10f
  2138     02A1  0008               	return
  2139     02A2                     l2085:
  2140     02A2  300D               	movlw	13
  2141     02A3  0022               	movlb	2	; select bank2
  2142     02A4  07EA               	addwf	log10f@ux^(0+256),f
  2143     02A5  30FB               	movlw	251
  2144     02A6  3DEB               	addwfc	(log10f@ux+1)^(0+256),f
  2145     02A7  304A               	movlw	74
  2146     02A8  3DEC               	addwfc	(log10f@ux+2)^(0+256),f
  2147     02A9  3000               	movlw	0
  2148     02AA  3DED               	addwfc	(log10f@ux+3)^(0+256),f
  2149     02AB  086A               	movf	log10f@ux^(0+256),w
  2150     02AC  0021               	movlb	1	; select bank1
  2151     02AD  00A0               	movwf	??_log10f^(0+128)
  2152     02AE  0022               	movlb	2	; select bank2
  2153     02AF  086B               	movf	(log10f@ux+1)^(0+256),w
  2154     02B0  0021               	movlb	1	; select bank1
  2155     02B1  00A1               	movwf	(??_log10f^(0+128)+1)
  2156     02B2  0022               	movlb	2	; select bank2
  2157     02B3  086C               	movf	(log10f@ux+2)^(0+256),w
  2158     02B4  0021               	movlb	1	; select bank1
  2159     02B5  00A2               	movwf	(??_log10f^(0+128)+2)
  2160     02B6  0022               	movlb	2	; select bank2
  2161     02B7  086D               	movf	(log10f@ux+3)^(0+256),w
  2162     02B8  0021               	movlb	1	; select bank1
  2163     02B9  00A3               	movwf	(??_log10f^(0+128)+3)
  2164     02BA  3017               	movlw	23
  2165     02BB                     u2645:
  2166     02BB  36A3               	lsrf	(??_log10f^(0+128)+3),f
  2167     02BC  0CA2               	rrf	(??_log10f^(0+128)+2),f
  2168     02BD  0CA1               	rrf	(??_log10f^(0+128)+1),f
  2169     02BE  0CA0               	rrf	??_log10f^(0+128),f
  2170     02BF  0B89               	decfsz	9,f
  2171     02C0  2ABB               	goto	u2645
  2172     02C1  0820               	movf	??_log10f^(0+128),w
  2173     02C2  3E81               	addlw	129
  2174     02C3  00A4               	movwf	(??_log10f+4)^(0+128)
  2175     02C4  30FF               	movlw	255
  2176     02C5  3D21               	addwfc	(??_log10f+1)^(0+128),w
  2177     02C6  00A5               	movwf	(??_log10f+5)^(0+128)
  2178     02C7  0824               	movf	(??_log10f+4)^(0+128),w
  2179     02C8  0022               	movlb	2	; select bank2
  2180     02C9  07C0               	addwf	log10f@k^(0+256),f
  2181     02CA  0021               	movlb	1	; select bank1
  2182     02CB  0825               	movf	(??_log10f+5)^(0+128),w
  2183     02CC  0022               	movlb	2	; select bank2
  2184     02CD  3DC1               	addwfc	(log10f@k+1)^(0+256),f
  2185     02CE  30F3               	movlw	243
  2186     02CF  0021               	movlb	1	; select bank1
  2187     02D0  00A0               	movwf	??_log10f^(0+128)
  2188     02D1  3004               	movlw	4
  2189     02D2  00A1               	movwf	(??_log10f^(0+128)+1)
  2190     02D3  3035               	movlw	53
  2191     02D4  00A2               	movwf	(??_log10f^(0+128)+2)
  2192     02D5  303F               	movlw	63
  2193     02D6  00A3               	movwf	(??_log10f^(0+128)+3)
  2194     02D7  30FF               	movlw	255
  2195     02D8  0022               	movlb	2	; select bank2
  2196     02D9  056A               	andwf	log10f@ux^(0+256),w
  2197     02DA  0021               	movlb	1	; select bank1
  2198     02DB  00A4               	movwf	(??_log10f+4)^(0+128)
  2199     02DC  30FF               	movlw	255
  2200     02DD  0022               	movlb	2	; select bank2
  2201     02DE  056B               	andwf	(log10f@ux+1)^(0+256),w
  2202     02DF  0021               	movlb	1	; select bank1
  2203     02E0  00A5               	movwf	((??_log10f+4)^(0+128)+1)
  2204     02E1  307F               	movlw	127
  2205     02E2  0022               	movlb	2	; select bank2
  2206     02E3  056C               	andwf	(log10f@ux+2)^(0+256),w
  2207     02E4  0021               	movlb	1	; select bank1
  2208     02E5  00A6               	movwf	((??_log10f+4)^(0+128)+2)
  2209     02E6  3000               	movlw	0
  2210     02E7  0022               	movlb	2	; select bank2
  2211     02E8  056D               	andwf	(log10f@ux+3)^(0+256),w
  2212     02E9  0021               	movlb	1	; select bank1
  2213     02EA  00A7               	movwf	((??_log10f+4)^(0+128)+3)
  2214     02EB  0824               	movf	(??_log10f+4)^(0+128),w
  2215     02EC  07A0               	addwf	??_log10f^(0+128),f
  2216     02ED  0825               	movf	(??_log10f+5)^(0+128),w
  2217     02EE  3DA1               	addwfc	(??_log10f^(0+128)+1),f
  2218     02EF  0826               	movf	(??_log10f+6)^(0+128),w
  2219     02F0  3DA2               	addwfc	(??_log10f^(0+128)+2),f
  2220     02F1  0827               	movf	(??_log10f+7)^(0+128),w
  2221     02F2  3DA3               	addwfc	(??_log10f^(0+128)+3),f
  2222     02F3  0823               	movf	(??_log10f+3)^(0+128),w
  2223     02F4  0022               	movlb	2	; select bank2
  2224     02F5  00ED               	movwf	(log10f@ux+3)^(0+256)
  2225     02F6  0021               	movlb	1	; select bank1
  2226     02F7  0822               	movf	(??_log10f+2)^(0+128),w
  2227     02F8  0022               	movlb	2	; select bank2
  2228     02F9  00EC               	movwf	(log10f@ux+2)^(0+256)
  2229     02FA  0021               	movlb	1	; select bank1
  2230     02FB  0821               	movf	(??_log10f+1)^(0+128),w
  2231     02FC  0022               	movlb	2	; select bank2
  2232     02FD  00EB               	movwf	(log10f@ux+1)^(0+256)
  2233     02FE  0021               	movlb	1	; select bank1
  2234     02FF  0820               	movf	??_log10f^(0+128),w
  2235     0300  0022               	movlb	2	; select bank2
  2236     0301  00EA               	movwf	log10f@ux^(0+256)
  2237     0302  30BF               	movlw	191
  2238     0303  0020               	movlb	0	; select bank0
  2239     0304  00BD               	movwf	___fladd@b+3
  2240     0305  3080               	movlw	128
  2241     0306  00BC               	movwf	___fladd@b+2
  2242     0307  3000               	movlw	0
  2243     0308  00BB               	movwf	___fladd@b+1
  2244     0309  3000               	movlw	0
  2245     030A  00BA               	movwf	___fladd@b
  2246     030B  0022               	movlb	2	; select bank2
  2247     030C  086D               	movf	(log10f@ux+3)^(0+256),w
  2248     030D  0020               	movlb	0	; select bank0
  2249     030E  00C1               	movwf	___fladd@a+3
  2250     030F  0022               	movlb	2	; select bank2
  2251     0310  086C               	movf	(log10f@ux+2)^(0+256),w
  2252     0311  0020               	movlb	0	; select bank0
  2253     0312  00C0               	movwf	___fladd@a+2
  2254     0313  0022               	movlb	2	; select bank2
  2255     0314  086B               	movf	(log10f@ux+1)^(0+256),w
  2256     0315  0020               	movlb	0	; select bank0
  2257     0316  00BF               	movwf	___fladd@a+1
  2258     0317  0022               	movlb	2	; select bank2
  2259     0318  086A               	movf	log10f@ux^(0+256),w
  2260     0319  0020               	movlb	0	; select bank0
  2261     031A  00BE               	movwf	___fladd@a
  2262     031B  3180  2024  3181   	fcall	___fladd
  2263     031E  0020               	movlb	0	; select bank0
  2264     031F  083D               	movf	?___fladd+3,w
  2265     0320  0022               	movlb	2	; select bank2
  2266     0321  00E9               	movwf	(log10f@f+3)^(0+256)
  2267     0322  0020               	movlb	0	; select bank0
  2268     0323  083C               	movf	?___fladd+2,w
  2269     0324  0022               	movlb	2	; select bank2
  2270     0325  00E8               	movwf	(log10f@f+2)^(0+256)
  2271     0326  0020               	movlb	0	; select bank0
  2272     0327  083B               	movf	?___fladd+1,w
  2273     0328  0022               	movlb	2	; select bank2
  2274     0329  00E7               	movwf	(log10f@f+1)^(0+256)
  2275     032A  0020               	movlb	0	; select bank0
  2276     032B  083A               	movf	?___fladd,w
  2277     032C  0022               	movlb	2	; select bank2
  2278     032D  00E6               	movwf	log10f@f^(0+256)
  2279     032E  3040               	movlw	64
  2280     032F  0020               	movlb	0	; select bank0
  2281     0330  00BD               	movwf	___fladd@b+3
  2282     0331  3000               	movlw	0
  2283     0332  00BC               	movwf	___fladd@b+2
  2284     0333  3000               	movlw	0
  2285     0334  00BB               	movwf	___fladd@b+1
  2286     0335  3000               	movlw	0
  2287     0336  00BA               	movwf	___fladd@b
  2288     0337  0022               	movlb	2	; select bank2
  2289     0338  0869               	movf	(log10f@f+3)^(0+256),w
  2290     0339  0020               	movlb	0	; select bank0
  2291     033A  00C1               	movwf	___fladd@a+3
  2292     033B  0022               	movlb	2	; select bank2
  2293     033C  0868               	movf	(log10f@f+2)^(0+256),w
  2294     033D  0020               	movlb	0	; select bank0
  2295     033E  00C0               	movwf	___fladd@a+2
  2296     033F  0022               	movlb	2	; select bank2
  2297     0340  0867               	movf	(log10f@f+1)^(0+256),w
  2298     0341  0020               	movlb	0	; select bank0
  2299     0342  00BF               	movwf	___fladd@a+1
  2300     0343  0022               	movlb	2	; select bank2
  2301     0344  0866               	movf	log10f@f^(0+256),w
  2302     0345  0020               	movlb	0	; select bank0
  2303     0346  00BE               	movwf	___fladd@a
  2304     0347  3180  2024  3181   	fcall	___fladd
  2305     034A  0020               	movlb	0	; select bank0
  2306     034B  083D               	movf	?___fladd+3,w
  2307     034C  00D1               	movwf	___fldiv@a+3
  2308     034D  083C               	movf	?___fladd+2,w
  2309     034E  00D0               	movwf	___fldiv@a+2
  2310     034F  083B               	movf	?___fladd+1,w
  2311     0350  00CF               	movwf	___fldiv@a+1
  2312     0351  083A               	movf	?___fladd,w
  2313     0352  00CE               	movwf	___fldiv@a
  2314     0353  0022               	movlb	2	; select bank2
  2315     0354  0869               	movf	(log10f@f+3)^(0+256),w
  2316     0355  0020               	movlb	0	; select bank0
  2317     0356  00D5               	movwf	___fldiv@b+3
  2318     0357  0022               	movlb	2	; select bank2
  2319     0358  0868               	movf	(log10f@f+2)^(0+256),w
  2320     0359  0020               	movlb	0	; select bank0
  2321     035A  00D4               	movwf	___fldiv@b+2
  2322     035B  0022               	movlb	2	; select bank2
  2323     035C  0867               	movf	(log10f@f+1)^(0+256),w
  2324     035D  0020               	movlb	0	; select bank0
  2325     035E  00D3               	movwf	___fldiv@b+1
  2326     035F  0022               	movlb	2	; select bank2
  2327     0360  0866               	movf	log10f@f^(0+256),w
  2328     0361  0020               	movlb	0	; select bank0
  2329     0362  00D2               	movwf	___fldiv@b
  2330     0363  318C  2480  3181   	fcall	___fldiv
  2331     0366  0020               	movlb	0	; select bank0
  2332     0367  0851               	movf	?___fldiv+3,w
  2333     0368  0022               	movlb	2	; select bank2
  2334     0369  00D5               	movwf	(log10f@s+3)^(0+256)
  2335     036A  0020               	movlb	0	; select bank0
  2336     036B  0850               	movf	?___fldiv+2,w
  2337     036C  0022               	movlb	2	; select bank2
  2338     036D  00D4               	movwf	(log10f@s+2)^(0+256)
  2339     036E  0020               	movlb	0	; select bank0
  2340     036F  084F               	movf	?___fldiv+1,w
  2341     0370  0022               	movlb	2	; select bank2
  2342     0371  00D3               	movwf	(log10f@s+1)^(0+256)
  2343     0372  0020               	movlb	0	; select bank0
  2344     0373  084E               	movf	?___fldiv,w
  2345     0374  0022               	movlb	2	; select bank2
  2346     0375  00D2               	movwf	log10f@s^(0+256)
  2347     0376  0855               	movf	(log10f@s+3)^(0+256),w
  2348     0377  0020               	movlb	0	; select bank0
  2349     0378  00A3               	movwf	___flmul@b+3
  2350     0379  0022               	movlb	2	; select bank2
  2351     037A  0854               	movf	(log10f@s+2)^(0+256),w
  2352     037B  0020               	movlb	0	; select bank0
  2353     037C  00A2               	movwf	___flmul@b+2
  2354     037D  0022               	movlb	2	; select bank2
  2355     037E  0853               	movf	(log10f@s+1)^(0+256),w
  2356     037F  0020               	movlb	0	; select bank0
  2357     0380  00A1               	movwf	___flmul@b+1
  2358     0381  0022               	movlb	2	; select bank2
  2359     0382  0852               	movf	log10f@s^(0+256),w
  2360     0383  0020               	movlb	0	; select bank0
  2361     0384  00A0               	movwf	___flmul@b
  2362     0385  0022               	movlb	2	; select bank2
  2363     0386  0855               	movf	(log10f@s+3)^(0+256),w
  2364     0387  0020               	movlb	0	; select bank0
  2365     0388  00A7               	movwf	___flmul@a+3
  2366     0389  0022               	movlb	2	; select bank2
  2367     038A  0854               	movf	(log10f@s+2)^(0+256),w
  2368     038B  0020               	movlb	0	; select bank0
  2369     038C  00A6               	movwf	___flmul@a+2
  2370     038D  0022               	movlb	2	; select bank2
  2371     038E  0853               	movf	(log10f@s+1)^(0+256),w
  2372     038F  0020               	movlb	0	; select bank0
  2373     0390  00A5               	movwf	___flmul@a+1
  2374     0391  0022               	movlb	2	; select bank2
  2375     0392  0852               	movf	log10f@s^(0+256),w
  2376     0393  0020               	movlb	0	; select bank0
  2377     0394  00A4               	movwf	___flmul@a
  2378     0395  318D  25F0  3181   	fcall	___flmul
  2379     0398  0020               	movlb	0	; select bank0
  2380     0399  0823               	movf	?___flmul+3,w
  2381     039A  0022               	movlb	2	; select bank2
  2382     039B  00D9               	movwf	(log10f@z+3)^(0+256)
  2383     039C  0020               	movlb	0	; select bank0
  2384     039D  0822               	movf	?___flmul+2,w
  2385     039E  0022               	movlb	2	; select bank2
  2386     039F  00D8               	movwf	(log10f@z+2)^(0+256)
  2387     03A0  0020               	movlb	0	; select bank0
  2388     03A1  0821               	movf	?___flmul+1,w
  2389     03A2  0022               	movlb	2	; select bank2
  2390     03A3  00D7               	movwf	(log10f@z+1)^(0+256)
  2391     03A4  0020               	movlb	0	; select bank0
  2392     03A5  0820               	movf	?___flmul,w
  2393     03A6  0022               	movlb	2	; select bank2
  2394     03A7  00D6               	movwf	log10f@z^(0+256)
  2395     03A8  0859               	movf	(log10f@z+3)^(0+256),w
  2396     03A9  0020               	movlb	0	; select bank0
  2397     03AA  00A3               	movwf	___flmul@b+3
  2398     03AB  0022               	movlb	2	; select bank2
  2399     03AC  0858               	movf	(log10f@z+2)^(0+256),w
  2400     03AD  0020               	movlb	0	; select bank0
  2401     03AE  00A2               	movwf	___flmul@b+2
  2402     03AF  0022               	movlb	2	; select bank2
  2403     03B0  0857               	movf	(log10f@z+1)^(0+256),w
  2404     03B1  0020               	movlb	0	; select bank0
  2405     03B2  00A1               	movwf	___flmul@b+1
  2406     03B3  0022               	movlb	2	; select bank2
  2407     03B4  0856               	movf	log10f@z^(0+256),w
  2408     03B5  0020               	movlb	0	; select bank0
  2409     03B6  00A0               	movwf	___flmul@b
  2410     03B7  0022               	movlb	2	; select bank2
  2411     03B8  0859               	movf	(log10f@z+3)^(0+256),w
  2412     03B9  0020               	movlb	0	; select bank0
  2413     03BA  00A7               	movwf	___flmul@a+3
  2414     03BB  0022               	movlb	2	; select bank2
  2415     03BC  0858               	movf	(log10f@z+2)^(0+256),w
  2416     03BD  0020               	movlb	0	; select bank0
  2417     03BE  00A6               	movwf	___flmul@a+2
  2418     03BF  0022               	movlb	2	; select bank2
  2419     03C0  0857               	movf	(log10f@z+1)^(0+256),w
  2420     03C1  0020               	movlb	0	; select bank0
  2421     03C2  00A5               	movwf	___flmul@a+1
  2422     03C3  0022               	movlb	2	; select bank2
  2423     03C4  0856               	movf	log10f@z^(0+256),w
  2424     03C5  0020               	movlb	0	; select bank0
  2425     03C6  00A4               	movwf	___flmul@a
  2426     03C7  318D  25F0  3181   	fcall	___flmul
  2427     03CA  0020               	movlb	0	; select bank0
  2428     03CB  0823               	movf	?___flmul+3,w
  2429     03CC  0022               	movlb	2	; select bank2
  2430     03CD  00DD               	movwf	(log10f@w+3)^(0+256)
  2431     03CE  0020               	movlb	0	; select bank0
  2432     03CF  0822               	movf	?___flmul+2,w
  2433     03D0  0022               	movlb	2	; select bank2
  2434     03D1  00DC               	movwf	(log10f@w+2)^(0+256)
  2435     03D2  0020               	movlb	0	; select bank0
  2436     03D3  0821               	movf	?___flmul+1,w
  2437     03D4  0022               	movlb	2	; select bank2
  2438     03D5  00DB               	movwf	(log10f@w+1)^(0+256)
  2439     03D6  0020               	movlb	0	; select bank0
  2440     03D7  0820               	movf	?___flmul,w
  2441     03D8  0022               	movlb	2	; select bank2
  2442     03D9  00DA               	movwf	log10f@w^(0+256)
  2443     03DA  303E               	movlw	62
  2444     03DB  0020               	movlb	0	; select bank0
  2445     03DC  00BD               	movwf	___fladd@b+3
  2446     03DD  30CC               	movlw	204
  2447     03DE  00BC               	movwf	___fladd@b+2
  2448     03DF  30CE               	movlw	206
  2449     03E0  00BB               	movwf	___fladd@b+1
  2450     03E1  3013               	movlw	19
  2451     03E2  00BA               	movwf	___fladd@b
  2452     03E3  303E               	movlw	62
  2453     03E4  00A3               	movwf	___flmul@b+3
  2454     03E5  3078               	movlw	120
  2455     03E6  00A2               	movwf	___flmul@b+2
  2456     03E7  309E               	movlw	158
  2457     03E8  00A1               	movwf	___flmul@b+1
  2458     03E9  3026               	movlw	38
  2459     03EA  00A0               	movwf	___flmul@b
  2460     03EB  0022               	movlb	2	; select bank2
  2461     03EC  085D               	movf	(log10f@w+3)^(0+256),w
  2462     03ED  0020               	movlb	0	; select bank0
  2463     03EE  00A7               	movwf	___flmul@a+3
  2464     03EF  0022               	movlb	2	; select bank2
  2465     03F0  085C               	movf	(log10f@w+2)^(0+256),w
  2466     03F1  0020               	movlb	0	; select bank0
  2467     03F2  00A6               	movwf	___flmul@a+2
  2468     03F3  0022               	movlb	2	; select bank2
  2469     03F4  085B               	movf	(log10f@w+1)^(0+256),w
  2470     03F5  0020               	movlb	0	; select bank0
  2471     03F6  00A5               	movwf	___flmul@a+1
  2472     03F7  0022               	movlb	2	; select bank2
  2473     03F8  085A               	movf	log10f@w^(0+256),w
  2474     03F9  0020               	movlb	0	; select bank0
  2475     03FA  00A4               	movwf	___flmul@a
  2476     03FB  318D  25F0  3181   	fcall	___flmul
  2477     03FE  0020               	movlb	0	; select bank0
  2478     03FF  0823               	movf	?___flmul+3,w
  2479     0400  00C1               	movwf	___fladd@a+3
  2480     0401  0822               	movf	?___flmul+2,w
  2481     0402  00C0               	movwf	___fladd@a+2
  2482     0403  0821               	movf	?___flmul+1,w
  2483     0404  00BF               	movwf	___fladd@a+1
  2484     0405  0820               	movf	?___flmul,w
  2485     0406  00BE               	movwf	___fladd@a
  2486     0407  3180  2024  3181   	fcall	___fladd
  2487     040A  0020               	movlb	0	; select bank0
  2488     040B  083D               	movf	?___fladd+3,w
  2489     040C  0022               	movlb	2	; select bank2
  2490     040D  00E1               	movwf	(_log10f$764+3)^(0+256)
  2491     040E  0020               	movlb	0	; select bank0
  2492     040F  083C               	movf	?___fladd+2,w
  2493     0410  0022               	movlb	2	; select bank2
  2494     0411  00E0               	movwf	(_log10f$764+2)^(0+256)
  2495     0412  0020               	movlb	0	; select bank0
  2496     0413  083B               	movf	?___fladd+1,w
  2497     0414  0022               	movlb	2	; select bank2
  2498     0415  00DF               	movwf	(_log10f$764+1)^(0+256)
  2499     0416  0020               	movlb	0	; select bank0
  2500     0417  083A               	movf	?___fladd,w
  2501     0418  0022               	movlb	2	; select bank2
  2502     0419  00DE               	movwf	_log10f$764^(0+256)
  2503     041A  085D               	movf	(log10f@w+3)^(0+256),w
  2504     041B  0020               	movlb	0	; select bank0
  2505     041C  00A3               	movwf	___flmul@b+3
  2506     041D  0022               	movlb	2	; select bank2
  2507     041E  085C               	movf	(log10f@w+2)^(0+256),w
  2508     041F  0020               	movlb	0	; select bank0
  2509     0420  00A2               	movwf	___flmul@b+2
  2510     0421  0022               	movlb	2	; select bank2
  2511     0422  085B               	movf	(log10f@w+1)^(0+256),w
  2512     0423  0020               	movlb	0	; select bank0
  2513     0424  00A1               	movwf	___flmul@b+1
  2514     0425  0022               	movlb	2	; select bank2
  2515     0426  085A               	movf	log10f@w^(0+256),w
  2516     0427  0020               	movlb	0	; select bank0
  2517     0428  00A0               	movwf	___flmul@b
  2518     0429  0022               	movlb	2	; select bank2
  2519     042A  0861               	movf	(_log10f$764+3)^(0+256),w
  2520     042B  0020               	movlb	0	; select bank0
  2521     042C  00A7               	movwf	___flmul@a+3
  2522     042D  0022               	movlb	2	; select bank2
  2523     042E  0860               	movf	(_log10f$764+2)^(0+256),w
  2524     042F  0020               	movlb	0	; select bank0
  2525     0430  00A6               	movwf	___flmul@a+2
  2526     0431  0022               	movlb	2	; select bank2
  2527     0432  085F               	movf	(_log10f$764+1)^(0+256),w
  2528     0433  0020               	movlb	0	; select bank0
  2529     0434  00A5               	movwf	___flmul@a+1
  2530     0435  0022               	movlb	2	; select bank2
  2531     0436  085E               	movf	_log10f$764^(0+256),w
  2532     0437  0020               	movlb	0	; select bank0
  2533     0438  00A4               	movwf	___flmul@a
  2534     0439  318D  25F0  3181   	fcall	___flmul
  2535     043C  0020               	movlb	0	; select bank0
  2536     043D  0823               	movf	?___flmul+3,w
  2537     043E  0022               	movlb	2	; select bank2
  2538     043F  00A7               	movwf	(log10f@t1+3)^(0+256)
  2539     0440  0020               	movlb	0	; select bank0
  2540     0441  0822               	movf	?___flmul+2,w
  2541     0442  0022               	movlb	2	; select bank2
  2542     0443  00A6               	movwf	(log10f@t1+2)^(0+256)
  2543     0444  0020               	movlb	0	; select bank0
  2544     0445  0821               	movf	?___flmul+1,w
  2545     0446  0022               	movlb	2	; select bank2
  2546     0447  00A5               	movwf	(log10f@t1+1)^(0+256)
  2547     0448  0020               	movlb	0	; select bank0
  2548     0449  0820               	movf	?___flmul,w
  2549     044A  0022               	movlb	2	; select bank2
  2550     044B  00A4               	movwf	log10f@t1^(0+256)
  2551     044C  303F               	movlw	63
  2552     044D  0020               	movlb	0	; select bank0
  2553     044E  00BD               	movwf	___fladd@b+3
  2554     044F  302A               	movlw	42
  2555     0450  00BC               	movwf	___fladd@b+2
  2556     0451  30AA               	movlw	170
  2557     0452  00BB               	movwf	___fladd@b+1
  2558     0453  30AA               	movlw	170
  2559     0454  00BA               	movwf	___fladd@b
  2560     0455  303E               	movlw	62
  2561     0456  00A3               	movwf	___flmul@b+3
  2562     0457  3091               	movlw	145
  2563     0458  00A2               	movwf	___flmul@b+2
  2564     0459  30E9               	movlw	233
  2565     045A  00A1               	movwf	___flmul@b+1
  2566     045B  30EE               	movlw	238
  2567     045C  00A0               	movwf	___flmul@b
  2568     045D  0022               	movlb	2	; select bank2
  2569     045E  085D               	movf	(log10f@w+3)^(0+256),w
  2570     045F  0020               	movlb	0	; select bank0
  2571     0460  00A7               	movwf	___flmul@a+3
  2572     0461  0022               	movlb	2	; select bank2
  2573     0462  085C               	movf	(log10f@w+2)^(0+256),w
  2574     0463  0020               	movlb	0	; select bank0
  2575     0464  00A6               	movwf	___flmul@a+2
  2576     0465  0022               	movlb	2	; select bank2
  2577     0466  085B               	movf	(log10f@w+1)^(0+256),w
  2578     0467  0020               	movlb	0	; select bank0
  2579     0468  00A5               	movwf	___flmul@a+1
  2580     0469  0022               	movlb	2	; select bank2
  2581     046A  085A               	movf	log10f@w^(0+256),w
  2582     046B  0020               	movlb	0	; select bank0
  2583     046C  00A4               	movwf	___flmul@a
  2584     046D  318D  25F0  3181   	fcall	___flmul
  2585     0470  0020               	movlb	0	; select bank0
  2586     0471  0823               	movf	?___flmul+3,w
  2587     0472  00C1               	movwf	___fladd@a+3
  2588     0473  0822               	movf	?___flmul+2,w
  2589     0474  00C0               	movwf	___fladd@a+2
  2590     0475  0821               	movf	?___flmul+1,w
  2591     0476  00BF               	movwf	___fladd@a+1
  2592     0477  0820               	movf	?___flmul,w
  2593     0478  00BE               	movwf	___fladd@a
  2594     0479  3180  2024  3181   	fcall	___fladd
  2595     047C  0020               	movlb	0	; select bank0
  2596     047D  083D               	movf	?___fladd+3,w
  2597     047E  0022               	movlb	2	; select bank2
  2598     047F  00E1               	movwf	(_log10f$764+3)^(0+256)
  2599     0480  0020               	movlb	0	; select bank0
  2600     0481  083C               	movf	?___fladd+2,w
  2601     0482  0022               	movlb	2	; select bank2
  2602     0483  00E0               	movwf	(_log10f$764+2)^(0+256)
  2603     0484  0020               	movlb	0	; select bank0
  2604     0485  083B               	movf	?___fladd+1,w
  2605     0486  0022               	movlb	2	; select bank2
  2606     0487  00DF               	movwf	(_log10f$764+1)^(0+256)
  2607     0488  0020               	movlb	0	; select bank0
  2608     0489  083A               	movf	?___fladd,w
  2609     048A  0022               	movlb	2	; select bank2
  2610     048B  00DE               	movwf	_log10f$764^(0+256)
  2611     048C  0859               	movf	(log10f@z+3)^(0+256),w
  2612     048D  0020               	movlb	0	; select bank0
  2613     048E  00A3               	movwf	___flmul@b+3
  2614     048F  0022               	movlb	2	; select bank2
  2615     0490  0858               	movf	(log10f@z+2)^(0+256),w
  2616     0491  0020               	movlb	0	; select bank0
  2617     0492  00A2               	movwf	___flmul@b+2
  2618     0493  0022               	movlb	2	; select bank2
  2619     0494  0857               	movf	(log10f@z+1)^(0+256),w
  2620     0495  0020               	movlb	0	; select bank0
  2621     0496  00A1               	movwf	___flmul@b+1
  2622     0497  0022               	movlb	2	; select bank2
  2623     0498  0856               	movf	log10f@z^(0+256),w
  2624     0499  0020               	movlb	0	; select bank0
  2625     049A  00A0               	movwf	___flmul@b
  2626     049B  0022               	movlb	2	; select bank2
  2627     049C  0861               	movf	(_log10f$764+3)^(0+256),w
  2628     049D  0020               	movlb	0	; select bank0
  2629     049E  00A7               	movwf	___flmul@a+3
  2630     049F  0022               	movlb	2	; select bank2
  2631     04A0  0860               	movf	(_log10f$764+2)^(0+256),w
  2632     04A1  0020               	movlb	0	; select bank0
  2633     04A2  00A6               	movwf	___flmul@a+2
  2634     04A3  0022               	movlb	2	; select bank2
  2635     04A4  085F               	movf	(_log10f$764+1)^(0+256),w
  2636     04A5  0020               	movlb	0	; select bank0
  2637     04A6  00A5               	movwf	___flmul@a+1
  2638     04A7  0022               	movlb	2	; select bank2
  2639     04A8  085E               	movf	_log10f$764^(0+256),w
  2640     04A9  0020               	movlb	0	; select bank0
  2641     04AA  00A4               	movwf	___flmul@a
  2642     04AB  318D  25F0  3181   	fcall	___flmul
  2643     04AE  0020               	movlb	0	; select bank0
  2644     04AF  0823               	movf	?___flmul+3,w
  2645     04B0  0022               	movlb	2	; select bank2
  2646     04B1  00AB               	movwf	(log10f@t2+3)^(0+256)
  2647     04B2  0020               	movlb	0	; select bank0
  2648     04B3  0822               	movf	?___flmul+2,w
  2649     04B4  0022               	movlb	2	; select bank2
  2650     04B5  00AA               	movwf	(log10f@t2+2)^(0+256)
  2651     04B6  0020               	movlb	0	; select bank0
  2652     04B7  0821               	movf	?___flmul+1,w
  2653     04B8  0022               	movlb	2	; select bank2
  2654     04B9  00A9               	movwf	(log10f@t2+1)^(0+256)
  2655     04BA  0020               	movlb	0	; select bank0
  2656     04BB  0820               	movf	?___flmul,w
  2657     04BC  0022               	movlb	2	; select bank2
  2658     04BD  00A8               	movwf	log10f@t2^(0+256)
  2659     04BE  0827               	movf	(log10f@t1+3)^(0+256),w
  2660     04BF  0020               	movlb	0	; select bank0
  2661     04C0  00BD               	movwf	___fladd@b+3
  2662     04C1  0022               	movlb	2	; select bank2
  2663     04C2  0826               	movf	(log10f@t1+2)^(0+256),w
  2664     04C3  0020               	movlb	0	; select bank0
  2665     04C4  00BC               	movwf	___fladd@b+2
  2666     04C5  0022               	movlb	2	; select bank2
  2667     04C6  0825               	movf	(log10f@t1+1)^(0+256),w
  2668     04C7  0020               	movlb	0	; select bank0
  2669     04C8  00BB               	movwf	___fladd@b+1
  2670     04C9  0022               	movlb	2	; select bank2
  2671     04CA  0824               	movf	log10f@t1^(0+256),w
  2672     04CB  0020               	movlb	0	; select bank0
  2673     04CC  00BA               	movwf	___fladd@b
  2674     04CD  0022               	movlb	2	; select bank2
  2675     04CE  082B               	movf	(log10f@t2+3)^(0+256),w
  2676     04CF  0020               	movlb	0	; select bank0
  2677     04D0  00C1               	movwf	___fladd@a+3
  2678     04D1  0022               	movlb	2	; select bank2
  2679     04D2  082A               	movf	(log10f@t2+2)^(0+256),w
  2680     04D3  0020               	movlb	0	; select bank0
  2681     04D4  00C0               	movwf	___fladd@a+2
  2682     04D5  0022               	movlb	2	; select bank2
  2683     04D6  0829               	movf	(log10f@t2+1)^(0+256),w
  2684     04D7  0020               	movlb	0	; select bank0
  2685     04D8  00BF               	movwf	___fladd@a+1
  2686     04D9  0022               	movlb	2	; select bank2
  2687     04DA  0828               	movf	log10f@t2^(0+256),w
  2688     04DB  0020               	movlb	0	; select bank0
  2689     04DC  00BE               	movwf	___fladd@a
  2690     04DD  3180  2024  3181   	fcall	___fladd
  2691     04E0  0020               	movlb	0	; select bank0
  2692     04E1  083D               	movf	?___fladd+3,w
  2693     04E2  0022               	movlb	2	; select bank2
  2694     04E3  00A3               	movwf	(log10f@R+3)^(0+256)
  2695     04E4  0020               	movlb	0	; select bank0
  2696     04E5  083C               	movf	?___fladd+2,w
  2697     04E6  0022               	movlb	2	; select bank2
  2698     04E7  00A2               	movwf	(log10f@R+2)^(0+256)
  2699     04E8  0020               	movlb	0	; select bank0
  2700     04E9  083B               	movf	?___fladd+1,w
  2701     04EA  0022               	movlb	2	; select bank2
  2702     04EB  00A1               	movwf	(log10f@R+1)^(0+256)
  2703     04EC  0020               	movlb	0	; select bank0
  2704     04ED  083A               	movf	?___fladd,w
  2705     04EE  0022               	movlb	2	; select bank2
  2706     04EF  00A0               	movwf	log10f@R^(0+256)
  2707     04F0  303F               	movlw	63
  2708     04F1  0020               	movlb	0	; select bank0
  2709     04F2  00A3               	movwf	___flmul@b+3
  2710     04F3  3000               	movlw	0
  2711     04F4  00A2               	movwf	___flmul@b+2
  2712     04F5  3000               	movlw	0
  2713     04F6  00A1               	movwf	___flmul@b+1
  2714     04F7  3000               	movlw	0
  2715     04F8  00A0               	movwf	___flmul@b
  2716     04F9  0022               	movlb	2	; select bank2
  2717     04FA  0869               	movf	(log10f@f+3)^(0+256),w
  2718     04FB  0020               	movlb	0	; select bank0
  2719     04FC  00A7               	movwf	___flmul@a+3
  2720     04FD  0022               	movlb	2	; select bank2
  2721     04FE  0868               	movf	(log10f@f+2)^(0+256),w
  2722     04FF  0020               	movlb	0	; select bank0
  2723     0500  00A6               	movwf	___flmul@a+2
  2724     0501  0022               	movlb	2	; select bank2
  2725     0502  0867               	movf	(log10f@f+1)^(0+256),w
  2726     0503  0020               	movlb	0	; select bank0
  2727     0504  00A5               	movwf	___flmul@a+1
  2728     0505  0022               	movlb	2	; select bank2
  2729     0506  0866               	movf	log10f@f^(0+256),w
  2730     0507  0020               	movlb	0	; select bank0
  2731     0508  00A4               	movwf	___flmul@a
  2732     0509  318D  25F0  3181   	fcall	___flmul
  2733     050C  0020               	movlb	0	; select bank0
  2734     050D  0823               	movf	?___flmul+3,w
  2735     050E  0022               	movlb	2	; select bank2
  2736     050F  00E1               	movwf	(_log10f$764+3)^(0+256)
  2737     0510  0020               	movlb	0	; select bank0
  2738     0511  0822               	movf	?___flmul+2,w
  2739     0512  0022               	movlb	2	; select bank2
  2740     0513  00E0               	movwf	(_log10f$764+2)^(0+256)
  2741     0514  0020               	movlb	0	; select bank0
  2742     0515  0821               	movf	?___flmul+1,w
  2743     0516  0022               	movlb	2	; select bank2
  2744     0517  00DF               	movwf	(_log10f$764+1)^(0+256)
  2745     0518  0020               	movlb	0	; select bank0
  2746     0519  0820               	movf	?___flmul,w
  2747     051A  0022               	movlb	2	; select bank2
  2748     051B  00DE               	movwf	_log10f$764^(0+256)
  2749     051C  0869               	movf	(log10f@f+3)^(0+256),w
  2750     051D  0020               	movlb	0	; select bank0
  2751     051E  00A3               	movwf	___flmul@b+3
  2752     051F  0022               	movlb	2	; select bank2
  2753     0520  0868               	movf	(log10f@f+2)^(0+256),w
  2754     0521  0020               	movlb	0	; select bank0
  2755     0522  00A2               	movwf	___flmul@b+2
  2756     0523  0022               	movlb	2	; select bank2
  2757     0524  0867               	movf	(log10f@f+1)^(0+256),w
  2758     0525  0020               	movlb	0	; select bank0
  2759     0526  00A1               	movwf	___flmul@b+1
  2760     0527  0022               	movlb	2	; select bank2
  2761     0528  0866               	movf	log10f@f^(0+256),w
  2762     0529  0020               	movlb	0	; select bank0
  2763     052A  00A0               	movwf	___flmul@b
  2764     052B  0022               	movlb	2	; select bank2
  2765     052C  0861               	movf	(_log10f$764+3)^(0+256),w
  2766     052D  0020               	movlb	0	; select bank0
  2767     052E  00A7               	movwf	___flmul@a+3
  2768     052F  0022               	movlb	2	; select bank2
  2769     0530  0860               	movf	(_log10f$764+2)^(0+256),w
  2770     0531  0020               	movlb	0	; select bank0
  2771     0532  00A6               	movwf	___flmul@a+2
  2772     0533  0022               	movlb	2	; select bank2
  2773     0534  085F               	movf	(_log10f$764+1)^(0+256),w
  2774     0535  0020               	movlb	0	; select bank0
  2775     0536  00A5               	movwf	___flmul@a+1
  2776     0537  0022               	movlb	2	; select bank2
  2777     0538  085E               	movf	_log10f$764^(0+256),w
  2778     0539  0020               	movlb	0	; select bank0
  2779     053A  00A4               	movwf	___flmul@a
  2780     053B  318D  25F0  3181   	fcall	___flmul
  2781     053E  0020               	movlb	0	; select bank0
  2782     053F  0823               	movf	?___flmul+3,w
  2783     0540  0022               	movlb	2	; select bank2
  2784     0541  00D1               	movwf	(log10f@hfsq+3)^(0+256)
  2785     0542  0020               	movlb	0	; select bank0
  2786     0543  0822               	movf	?___flmul+2,w
  2787     0544  0022               	movlb	2	; select bank2
  2788     0545  00D0               	movwf	(log10f@hfsq+2)^(0+256)
  2789     0546  0020               	movlb	0	; select bank0
  2790     0547  0821               	movf	?___flmul+1,w
  2791     0548  0022               	movlb	2	; select bank2
  2792     0549  00CF               	movwf	(log10f@hfsq+1)^(0+256)
  2793     054A  0020               	movlb	0	; select bank0
  2794     054B  0820               	movf	?___flmul,w
  2795     054C  0022               	movlb	2	; select bank2
  2796     054D  00CE               	movwf	log10f@hfsq^(0+256)
  2797     054E  0851               	movf	(log10f@hfsq+3)^(0+256),w
  2798     054F  0020               	movlb	0	; select bank0
  2799     0550  00D1               	movwf	___flsub@a+3
  2800     0551  0022               	movlb	2	; select bank2
  2801     0552  0850               	movf	(log10f@hfsq+2)^(0+256),w
  2802     0553  0020               	movlb	0	; select bank0
  2803     0554  00D0               	movwf	___flsub@a+2
  2804     0555  0022               	movlb	2	; select bank2
  2805     0556  084F               	movf	(log10f@hfsq+1)^(0+256),w
  2806     0557  0020               	movlb	0	; select bank0
  2807     0558  00CF               	movwf	___flsub@a+1
  2808     0559  0022               	movlb	2	; select bank2
  2809     055A  084E               	movf	log10f@hfsq^(0+256),w
  2810     055B  0020               	movlb	0	; select bank0
  2811     055C  00CE               	movwf	___flsub@a
  2812     055D  0022               	movlb	2	; select bank2
  2813     055E  0869               	movf	(log10f@f+3)^(0+256),w
  2814     055F  0020               	movlb	0	; select bank0
  2815     0560  00D5               	movwf	___flsub@b+3
  2816     0561  0022               	movlb	2	; select bank2
  2817     0562  0868               	movf	(log10f@f+2)^(0+256),w
  2818     0563  0020               	movlb	0	; select bank0
  2819     0564  00D4               	movwf	___flsub@b+2
  2820     0565  0022               	movlb	2	; select bank2
  2821     0566  0867               	movf	(log10f@f+1)^(0+256),w
  2822     0567  0020               	movlb	0	; select bank0
  2823     0568  00D3               	movwf	___flsub@b+1
  2824     0569  0022               	movlb	2	; select bank2
  2825     056A  0866               	movf	log10f@f^(0+256),w
  2826     056B  0020               	movlb	0	; select bank0
  2827     056C  00D2               	movwf	___flsub@b
  2828     056D  3180  2005  3181   	fcall	___flsub
  2829     0570  0020               	movlb	0	; select bank0
  2830     0571  0851               	movf	?___flsub+3,w
  2831     0572  0022               	movlb	2	; select bank2
  2832     0573  00E5               	movwf	(log10f@hi+3)^(0+256)
  2833     0574  0020               	movlb	0	; select bank0
  2834     0575  0850               	movf	?___flsub+2,w
  2835     0576  0022               	movlb	2	; select bank2
  2836     0577  00E4               	movwf	(log10f@hi+2)^(0+256)
  2837     0578  0020               	movlb	0	; select bank0
  2838     0579  084F               	movf	?___flsub+1,w
  2839     057A  0022               	movlb	2	; select bank2
  2840     057B  00E3               	movwf	(log10f@hi+1)^(0+256)
  2841     057C  0020               	movlb	0	; select bank0
  2842     057D  084E               	movf	?___flsub,w
  2843     057E  0022               	movlb	2	; select bank2
  2844     057F  00E2               	movwf	log10f@hi^(0+256)
  2845     0580  0865               	movf	(log10f@hi+3)^(0+256),w
  2846     0581  00ED               	movwf	(log10f@ux+3)^(0+256)
  2847     0582  0864               	movf	(log10f@hi+2)^(0+256),w
  2848     0583  00EC               	movwf	(log10f@ux+2)^(0+256)
  2849     0584  0863               	movf	(log10f@hi+1)^(0+256),w
  2850     0585  00EB               	movwf	(log10f@ux+1)^(0+256)
  2851     0586  0862               	movf	log10f@hi^(0+256),w
  2852     0587  00EA               	movwf	log10f@ux^(0+256)
  2853     0588  3000               	movlw	0
  2854     0589  05EA               	andwf	log10f@ux^(0+256),f
  2855     058A  30F0               	movlw	240
  2856     058B  05EB               	andwf	(log10f@ux+1)^(0+256),f
  2857     058C  30FF               	movlw	255
  2858     058D  05EC               	andwf	(log10f@ux+2)^(0+256),f
  2859     058E  30FF               	movlw	255
  2860     058F  05ED               	andwf	(log10f@ux+3)^(0+256),f
  2861     0590  086D               	movf	(log10f@ux+3)^(0+256),w
  2862     0591  00E5               	movwf	(log10f@hi+3)^(0+256)
  2863     0592  086C               	movf	(log10f@ux+2)^(0+256),w
  2864     0593  00E4               	movwf	(log10f@hi+2)^(0+256)
  2865     0594  086B               	movf	(log10f@ux+1)^(0+256),w
  2866     0595  00E3               	movwf	(log10f@hi+1)^(0+256)
  2867     0596  086A               	movf	log10f@ux^(0+256),w
  2868     0597  00E2               	movwf	log10f@hi^(0+256)
  2869     0598  0865               	movf	(log10f@hi+3)^(0+256),w
  2870     0599  0020               	movlb	0	; select bank0
  2871     059A  00D1               	movwf	___flsub@a+3
  2872     059B  0022               	movlb	2	; select bank2
  2873     059C  0864               	movf	(log10f@hi+2)^(0+256),w
  2874     059D  0020               	movlb	0	; select bank0
  2875     059E  00D0               	movwf	___flsub@a+2
  2876     059F  0022               	movlb	2	; select bank2
  2877     05A0  0863               	movf	(log10f@hi+1)^(0+256),w
  2878     05A1  0020               	movlb	0	; select bank0
  2879     05A2  00CF               	movwf	___flsub@a+1
  2880     05A3  0022               	movlb	2	; select bank2
  2881     05A4  0862               	movf	log10f@hi^(0+256),w
  2882     05A5  0020               	movlb	0	; select bank0
  2883     05A6  00CE               	movwf	___flsub@a
  2884     05A7  0022               	movlb	2	; select bank2
  2885     05A8  0869               	movf	(log10f@f+3)^(0+256),w
  2886     05A9  0020               	movlb	0	; select bank0
  2887     05AA  00D5               	movwf	___flsub@b+3
  2888     05AB  0022               	movlb	2	; select bank2
  2889     05AC  0868               	movf	(log10f@f+2)^(0+256),w
  2890     05AD  0020               	movlb	0	; select bank0
  2891     05AE  00D4               	movwf	___flsub@b+2
  2892     05AF  0022               	movlb	2	; select bank2
  2893     05B0  0867               	movf	(log10f@f+1)^(0+256),w
  2894     05B1  0020               	movlb	0	; select bank0
  2895     05B2  00D3               	movwf	___flsub@b+1
  2896     05B3  0022               	movlb	2	; select bank2
  2897     05B4  0866               	movf	log10f@f^(0+256),w
  2898     05B5  0020               	movlb	0	; select bank0
  2899     05B6  00D2               	movwf	___flsub@b
  2900     05B7  3180  2005  3181   	fcall	___flsub
  2901     05BA  0020               	movlb	0	; select bank0
  2902     05BB  0851               	movf	?___flsub+3,w
  2903     05BC  0022               	movlb	2	; select bank2
  2904     05BD  00AF               	movwf	(_log10f$765+3)^(0+256)
  2905     05BE  0020               	movlb	0	; select bank0
  2906     05BF  0850               	movf	?___flsub+2,w
  2907     05C0  0022               	movlb	2	; select bank2
  2908     05C1  00AE               	movwf	(_log10f$765+2)^(0+256)
  2909     05C2  0020               	movlb	0	; select bank0
  2910     05C3  084F               	movf	?___flsub+1,w
  2911     05C4  0022               	movlb	2	; select bank2
  2912     05C5  00AD               	movwf	(_log10f$765+1)^(0+256)
  2913     05C6  0020               	movlb	0	; select bank0
  2914     05C7  084E               	movf	?___flsub,w
  2915     05C8  0022               	movlb	2	; select bank2
  2916     05C9  00AC               	movwf	_log10f$765^(0+256)
  2917     05CA  0855               	movf	(log10f@s+3)^(0+256),w
  2918     05CB  0020               	movlb	0	; select bank0
  2919     05CC  00A3               	movwf	___flmul@b+3
  2920     05CD  0022               	movlb	2	; select bank2
  2921     05CE  0854               	movf	(log10f@s+2)^(0+256),w
  2922     05CF  0020               	movlb	0	; select bank0
  2923     05D0  00A2               	movwf	___flmul@b+2
  2924     05D1  0022               	movlb	2	; select bank2
  2925     05D2  0853               	movf	(log10f@s+1)^(0+256),w
  2926     05D3  0020               	movlb	0	; select bank0
  2927     05D4  00A1               	movwf	___flmul@b+1
  2928     05D5  0022               	movlb	2	; select bank2
  2929     05D6  0852               	movf	log10f@s^(0+256),w
  2930     05D7  0020               	movlb	0	; select bank0
  2931     05D8  00A0               	movwf	___flmul@b
  2932     05D9  0022               	movlb	2	; select bank2
  2933     05DA  0823               	movf	(log10f@R+3)^(0+256),w
  2934     05DB  0020               	movlb	0	; select bank0
  2935     05DC  00BD               	movwf	___fladd@b+3
  2936     05DD  0022               	movlb	2	; select bank2
  2937     05DE  0822               	movf	(log10f@R+2)^(0+256),w
  2938     05DF  0020               	movlb	0	; select bank0
  2939     05E0  00BC               	movwf	___fladd@b+2
  2940     05E1  0022               	movlb	2	; select bank2
  2941     05E2  0821               	movf	(log10f@R+1)^(0+256),w
  2942     05E3  0020               	movlb	0	; select bank0
  2943     05E4  00BB               	movwf	___fladd@b+1
  2944     05E5  0022               	movlb	2	; select bank2
  2945     05E6  0820               	movf	log10f@R^(0+256),w
  2946     05E7  0020               	movlb	0	; select bank0
  2947     05E8  00BA               	movwf	___fladd@b
  2948     05E9  0022               	movlb	2	; select bank2
  2949     05EA  0851               	movf	(log10f@hfsq+3)^(0+256),w
  2950     05EB  0020               	movlb	0	; select bank0
  2951     05EC  00C1               	movwf	___fladd@a+3
  2952     05ED  0022               	movlb	2	; select bank2
  2953     05EE  0850               	movf	(log10f@hfsq+2)^(0+256),w
  2954     05EF  0020               	movlb	0	; select bank0
  2955     05F0  00C0               	movwf	___fladd@a+2
  2956     05F1  0022               	movlb	2	; select bank2
  2957     05F2  084F               	movf	(log10f@hfsq+1)^(0+256),w
  2958     05F3  0020               	movlb	0	; select bank0
  2959     05F4  00BF               	movwf	___fladd@a+1
  2960     05F5  0022               	movlb	2	; select bank2
  2961     05F6  084E               	movf	log10f@hfsq^(0+256),w
  2962     05F7  0020               	movlb	0	; select bank0
  2963     05F8  00BE               	movwf	___fladd@a
  2964     05F9  3180  2024  3181   	fcall	___fladd
  2965     05FC  0020               	movlb	0	; select bank0
  2966     05FD  083D               	movf	?___fladd+3,w
  2967     05FE  00A7               	movwf	___flmul@a+3
  2968     05FF  083C               	movf	?___fladd+2,w
  2969     0600  00A6               	movwf	___flmul@a+2
  2970     0601  083B               	movf	?___fladd+1,w
  2971     0602  00A5               	movwf	___flmul@a+1
  2972     0603  083A               	movf	?___fladd,w
  2973     0604  00A4               	movwf	___flmul@a
  2974     0605  318D  25F0  3181   	fcall	___flmul
  2975     0608  0020               	movlb	0	; select bank0
  2976     0609  0823               	movf	?___flmul+3,w
  2977     060A  0022               	movlb	2	; select bank2
  2978     060B  00CD               	movwf	(_log10f$766+3)^(0+256)
  2979     060C  0020               	movlb	0	; select bank0
  2980     060D  0822               	movf	?___flmul+2,w
  2981     060E  0022               	movlb	2	; select bank2
  2982     060F  00CC               	movwf	(_log10f$766+2)^(0+256)
  2983     0610  0020               	movlb	0	; select bank0
  2984     0611  0821               	movf	?___flmul+1,w
  2985     0612  0022               	movlb	2	; select bank2
  2986     0613  00CB               	movwf	(_log10f$766+1)^(0+256)
  2987     0614  0020               	movlb	0	; select bank0
  2988     0615  0820               	movf	?___flmul,w
  2989     0616  0022               	movlb	2	; select bank2
  2990     0617  00CA               	movwf	_log10f$766^(0+256)
  2991     0618  0851               	movf	(log10f@hfsq+3)^(0+256),w
  2992     0619  0020               	movlb	0	; select bank0
  2993     061A  00D1               	movwf	___flsub@a+3
  2994     061B  0022               	movlb	2	; select bank2
  2995     061C  0850               	movf	(log10f@hfsq+2)^(0+256),w
  2996     061D  0020               	movlb	0	; select bank0
  2997     061E  00D0               	movwf	___flsub@a+2
  2998     061F  0022               	movlb	2	; select bank2
  2999     0620  084F               	movf	(log10f@hfsq+1)^(0+256),w
  3000     0621  0020               	movlb	0	; select bank0
  3001     0622  00CF               	movwf	___flsub@a+1
  3002     0623  0022               	movlb	2	; select bank2
  3003     0624  084E               	movf	log10f@hfsq^(0+256),w
  3004     0625  0020               	movlb	0	; select bank0
  3005     0626  00CE               	movwf	___flsub@a
  3006     0627  0022               	movlb	2	; select bank2
  3007     0628  082F               	movf	(_log10f$765+3)^(0+256),w
  3008     0629  0020               	movlb	0	; select bank0
  3009     062A  00D5               	movwf	___flsub@b+3
  3010     062B  0022               	movlb	2	; select bank2
  3011     062C  082E               	movf	(_log10f$765+2)^(0+256),w
  3012     062D  0020               	movlb	0	; select bank0
  3013     062E  00D4               	movwf	___flsub@b+2
  3014     062F  0022               	movlb	2	; select bank2
  3015     0630  082D               	movf	(_log10f$765+1)^(0+256),w
  3016     0631  0020               	movlb	0	; select bank0
  3017     0632  00D3               	movwf	___flsub@b+1
  3018     0633  0022               	movlb	2	; select bank2
  3019     0634  082C               	movf	_log10f$765^(0+256),w
  3020     0635  0020               	movlb	0	; select bank0
  3021     0636  00D2               	movwf	___flsub@b
  3022     0637  3180  2005  3181   	fcall	___flsub
  3023     063A  0020               	movlb	0	; select bank0
  3024     063B  0851               	movf	?___flsub+3,w
  3025     063C  0022               	movlb	2	; select bank2
  3026     063D  00B3               	movwf	(_log10f$767+3)^(0+256)
  3027     063E  0020               	movlb	0	; select bank0
  3028     063F  0850               	movf	?___flsub+2,w
  3029     0640  0022               	movlb	2	; select bank2
  3030     0641  00B2               	movwf	(_log10f$767+2)^(0+256)
  3031     0642  0020               	movlb	0	; select bank0
  3032     0643  084F               	movf	?___flsub+1,w
  3033     0644  0022               	movlb	2	; select bank2
  3034     0645  00B1               	movwf	(_log10f$767+1)^(0+256)
  3035     0646  0020               	movlb	0	; select bank0
  3036     0647  084E               	movf	?___flsub,w
  3037     0648  0022               	movlb	2	; select bank2
  3038     0649  00B0               	movwf	_log10f$767^(0+256)
  3039     064A  084D               	movf	(_log10f$766+3)^(0+256),w
  3040     064B  0020               	movlb	0	; select bank0
  3041     064C  00BD               	movwf	___fladd@b+3
  3042     064D  0022               	movlb	2	; select bank2
  3043     064E  084C               	movf	(_log10f$766+2)^(0+256),w
  3044     064F  0020               	movlb	0	; select bank0
  3045     0650  00BC               	movwf	___fladd@b+2
  3046     0651  0022               	movlb	2	; select bank2
  3047     0652  084B               	movf	(_log10f$766+1)^(0+256),w
  3048     0653  0020               	movlb	0	; select bank0
  3049     0654  00BB               	movwf	___fladd@b+1
  3050     0655  0022               	movlb	2	; select bank2
  3051     0656  084A               	movf	_log10f$766^(0+256),w
  3052     0657  0020               	movlb	0	; select bank0
  3053     0658  00BA               	movwf	___fladd@b
  3054     0659  0022               	movlb	2	; select bank2
  3055     065A  0833               	movf	(_log10f$767+3)^(0+256),w
  3056     065B  0020               	movlb	0	; select bank0
  3057     065C  00C1               	movwf	___fladd@a+3
  3058     065D  0022               	movlb	2	; select bank2
  3059     065E  0832               	movf	(_log10f$767+2)^(0+256),w
  3060     065F  0020               	movlb	0	; select bank0
  3061     0660  00C0               	movwf	___fladd@a+2
  3062     0661  0022               	movlb	2	; select bank2
  3063     0662  0831               	movf	(_log10f$767+1)^(0+256),w
  3064     0663  0020               	movlb	0	; select bank0
  3065     0664  00BF               	movwf	___fladd@a+1
  3066     0665  0022               	movlb	2	; select bank2
  3067     0666  0830               	movf	_log10f$767^(0+256),w
  3068     0667  0020               	movlb	0	; select bank0
  3069     0668  00BE               	movwf	___fladd@a
  3070     0669  3180  2024  3181   	fcall	___fladd
  3071     066C  0020               	movlb	0	; select bank0
  3072     066D  083D               	movf	?___fladd+3,w
  3073     066E  0022               	movlb	2	; select bank2
  3074     066F  00C9               	movwf	(log10f@lo+3)^(0+256)
  3075     0670  0020               	movlb	0	; select bank0
  3076     0671  083C               	movf	?___fladd+2,w
  3077     0672  0022               	movlb	2	; select bank2
  3078     0673  00C8               	movwf	(log10f@lo+2)^(0+256)
  3079     0674  0020               	movlb	0	; select bank0
  3080     0675  083B               	movf	?___fladd+1,w
  3081     0676  0022               	movlb	2	; select bank2
  3082     0677  00C7               	movwf	(log10f@lo+1)^(0+256)
  3083     0678  0020               	movlb	0	; select bank0
  3084     0679  083A               	movf	?___fladd,w
  3085     067A  0022               	movlb	2	; select bank2
  3086     067B  00C6               	movwf	log10f@lo^(0+256)
  3087     067C  0840               	movf	log10f@k^(0+256),w
  3088     067D  00F0               	movwf	___xxtofl@val
  3089     067E  0841               	movf	(log10f@k+1)^(0+256),w
  3090     067F  00F1               	movwf	___xxtofl@val+1
  3091     0680  0D89               	rlf	9,f
  3092     0681  3B89               	subwfb	9,f
  3093     0682  0989               	comf	9,f
  3094     0683  00F2               	movwf	___xxtofl@val+2
  3095     0684  00F3               	movwf	___xxtofl@val+3
  3096     0685  3001               	movlw	1
  3097     0686  318B  23ED  3181   	fcall	___xxtofl
  3098     0689  0873               	movf	?___xxtofl+3,w
  3099     068A  0022               	movlb	2	; select bank2
  3100     068B  00C5               	movwf	(log10f@dk+3)^(0+256)
  3101     068C  0872               	movf	?___xxtofl+2,w
  3102     068D  00C4               	movwf	(log10f@dk+2)^(0+256)
  3103     068E  0871               	movf	?___xxtofl+1,w
  3104     068F  00C3               	movwf	(log10f@dk+1)^(0+256)
  3105     0690  0870               	movf	?___xxtofl,w
  3106     0691  00C2               	movwf	log10f@dk^(0+256)
  3107     0692  30B8               	movlw	184
  3108     0693  0020               	movlb	0	; select bank0
  3109     0694  00A3               	movwf	___flmul@b+3
  3110     0695  3004               	movlw	4
  3111     0696  00A2               	movwf	___flmul@b+2
  3112     0697  30EA               	movlw	234
  3113     0698  00A1               	movwf	___flmul@b+1
  3114     0699  30D9               	movlw	217
  3115     069A  00A0               	movwf	___flmul@b
  3116     069B  0022               	movlb	2	; select bank2
  3117     069C  0865               	movf	(log10f@hi+3)^(0+256),w
  3118     069D  0020               	movlb	0	; select bank0
  3119     069E  00BD               	movwf	___fladd@b+3
  3120     069F  0022               	movlb	2	; select bank2
  3121     06A0  0864               	movf	(log10f@hi+2)^(0+256),w
  3122     06A1  0020               	movlb	0	; select bank0
  3123     06A2  00BC               	movwf	___fladd@b+2
  3124     06A3  0022               	movlb	2	; select bank2
  3125     06A4  0863               	movf	(log10f@hi+1)^(0+256),w
  3126     06A5  0020               	movlb	0	; select bank0
  3127     06A6  00BB               	movwf	___fladd@b+1
  3128     06A7  0022               	movlb	2	; select bank2
  3129     06A8  0862               	movf	log10f@hi^(0+256),w
  3130     06A9  0020               	movlb	0	; select bank0
  3131     06AA  00BA               	movwf	___fladd@b
  3132     06AB  0022               	movlb	2	; select bank2
  3133     06AC  0849               	movf	(log10f@lo+3)^(0+256),w
  3134     06AD  0020               	movlb	0	; select bank0
  3135     06AE  00C1               	movwf	___fladd@a+3
  3136     06AF  0022               	movlb	2	; select bank2
  3137     06B0  0848               	movf	(log10f@lo+2)^(0+256),w
  3138     06B1  0020               	movlb	0	; select bank0
  3139     06B2  00C0               	movwf	___fladd@a+2
  3140     06B3  0022               	movlb	2	; select bank2
  3141     06B4  0847               	movf	(log10f@lo+1)^(0+256),w
  3142     06B5  0020               	movlb	0	; select bank0
  3143     06B6  00BF               	movwf	___fladd@a+1
  3144     06B7  0022               	movlb	2	; select bank2
  3145     06B8  0846               	movf	log10f@lo^(0+256),w
  3146     06B9  0020               	movlb	0	; select bank0
  3147     06BA  00BE               	movwf	___fladd@a
  3148     06BB  3180  2024  3181   	fcall	___fladd
  3149     06BE  0020               	movlb	0	; select bank0
  3150     06BF  083D               	movf	?___fladd+3,w
  3151     06C0  00A7               	movwf	___flmul@a+3
  3152     06C1  083C               	movf	?___fladd+2,w
  3153     06C2  00A6               	movwf	___flmul@a+2
  3154     06C3  083B               	movf	?___fladd+1,w
  3155     06C4  00A5               	movwf	___flmul@a+1
  3156     06C5  083A               	movf	?___fladd,w
  3157     06C6  00A4               	movwf	___flmul@a
  3158     06C7  318D  25F0  3181   	fcall	___flmul
  3159     06CA  0020               	movlb	0	; select bank0
  3160     06CB  0823               	movf	?___flmul+3,w
  3161     06CC  0022               	movlb	2	; select bank2
  3162     06CD  00B7               	movwf	(_log10f$768+3)^(0+256)
  3163     06CE  0020               	movlb	0	; select bank0
  3164     06CF  0822               	movf	?___flmul+2,w
  3165     06D0  0022               	movlb	2	; select bank2
  3166     06D1  00B6               	movwf	(_log10f$768+2)^(0+256)
  3167     06D2  0020               	movlb	0	; select bank0
  3168     06D3  0821               	movf	?___flmul+1,w
  3169     06D4  0022               	movlb	2	; select bank2
  3170     06D5  00B5               	movwf	(_log10f$768+1)^(0+256)
  3171     06D6  0020               	movlb	0	; select bank0
  3172     06D7  0820               	movf	?___flmul,w
  3173     06D8  0022               	movlb	2	; select bank2
  3174     06D9  00B4               	movwf	_log10f$768^(0+256)
  3175     06DA  0837               	movf	(_log10f$768+3)^(0+256),w
  3176     06DB  0020               	movlb	0	; select bank0
  3177     06DC  00BD               	movwf	___fladd@b+3
  3178     06DD  0022               	movlb	2	; select bank2
  3179     06DE  0836               	movf	(_log10f$768+2)^(0+256),w
  3180     06DF  0020               	movlb	0	; select bank0
  3181     06E0  00BC               	movwf	___fladd@b+2
  3182     06E1  0022               	movlb	2	; select bank2
  3183     06E2  0835               	movf	(_log10f$768+1)^(0+256),w
  3184     06E3  0020               	movlb	0	; select bank0
  3185     06E4  00BB               	movwf	___fladd@b+1
  3186     06E5  0022               	movlb	2	; select bank2
  3187     06E6  0834               	movf	_log10f$768^(0+256),w
  3188     06E7  0020               	movlb	0	; select bank0
  3189     06E8  00BA               	movwf	___fladd@b
  3190     06E9  3035               	movlw	53
  3191     06EA  00A3               	movwf	___flmul@b+3
  3192     06EB  3054               	movlw	84
  3193     06EC  00A2               	movwf	___flmul@b+2
  3194     06ED  3027               	movlw	39
  3195     06EE  00A1               	movwf	___flmul@b+1
  3196     06EF  30DB               	movlw	219
  3197     06F0  00A0               	movwf	___flmul@b
  3198     06F1  0022               	movlb	2	; select bank2
  3199     06F2  0845               	movf	(log10f@dk+3)^(0+256),w
  3200     06F3  0020               	movlb	0	; select bank0
  3201     06F4  00A7               	movwf	___flmul@a+3
  3202     06F5  0022               	movlb	2	; select bank2
  3203     06F6  0844               	movf	(log10f@dk+2)^(0+256),w
  3204     06F7  0020               	movlb	0	; select bank0
  3205     06F8  00A6               	movwf	___flmul@a+2
  3206     06F9  0022               	movlb	2	; select bank2
  3207     06FA  0843               	movf	(log10f@dk+1)^(0+256),w
  3208     06FB  0020               	movlb	0	; select bank0
  3209     06FC  00A5               	movwf	___flmul@a+1
  3210     06FD  0022               	movlb	2	; select bank2
  3211     06FE  0842               	movf	log10f@dk^(0+256),w
  3212     06FF  0020               	movlb	0	; select bank0
  3213     0700  00A4               	movwf	___flmul@a
  3214     0701  318D  25F0  3181   	fcall	___flmul
  3215     0704  0020               	movlb	0	; select bank0
  3216     0705  0823               	movf	?___flmul+3,w
  3217     0706  00C1               	movwf	___fladd@a+3
  3218     0707  0822               	movf	?___flmul+2,w
  3219     0708  00C0               	movwf	___fladd@a+2
  3220     0709  0821               	movf	?___flmul+1,w
  3221     070A  00BF               	movwf	___fladd@a+1
  3222     070B  0820               	movf	?___flmul,w
  3223     070C  00BE               	movwf	___fladd@a
  3224     070D  3180  2024  3181   	fcall	___fladd
  3225     0710  0020               	movlb	0	; select bank0
  3226     0711  083D               	movf	?___fladd+3,w
  3227     0712  0022               	movlb	2	; select bank2
  3228     0713  00CD               	movwf	(_log10f$766+3)^(0+256)
  3229     0714  0020               	movlb	0	; select bank0
  3230     0715  083C               	movf	?___fladd+2,w
  3231     0716  0022               	movlb	2	; select bank2
  3232     0717  00CC               	movwf	(_log10f$766+2)^(0+256)
  3233     0718  0020               	movlb	0	; select bank0
  3234     0719  083B               	movf	?___fladd+1,w
  3235     071A  0022               	movlb	2	; select bank2
  3236     071B  00CB               	movwf	(_log10f$766+1)^(0+256)
  3237     071C  0020               	movlb	0	; select bank0
  3238     071D  083A               	movf	?___fladd,w
  3239     071E  0022               	movlb	2	; select bank2
  3240     071F  00CA               	movwf	_log10f$766^(0+256)
  3241     0720  303E               	movlw	62
  3242     0721  0020               	movlb	0	; select bank0
  3243     0722  00A3               	movwf	___flmul@b+3
  3244     0723  30DE               	movlw	222
  3245     0724  00A2               	movwf	___flmul@b+2
  3246     0725  3060               	movlw	96
  3247     0726  00A1               	movwf	___flmul@b+1
  3248     0727  3000               	movlw	0
  3249     0728  00A0               	movwf	___flmul@b
  3250     0729  0022               	movlb	2	; select bank2
  3251     072A  0849               	movf	(log10f@lo+3)^(0+256),w
  3252     072B  0020               	movlb	0	; select bank0
  3253     072C  00A7               	movwf	___flmul@a+3
  3254     072D  0022               	movlb	2	; select bank2
  3255     072E  0848               	movf	(log10f@lo+2)^(0+256),w
  3256     072F  0020               	movlb	0	; select bank0
  3257     0730  00A6               	movwf	___flmul@a+2
  3258     0731  0022               	movlb	2	; select bank2
  3259     0732  0847               	movf	(log10f@lo+1)^(0+256),w
  3260     0733  0020               	movlb	0	; select bank0
  3261     0734  00A5               	movwf	___flmul@a+1
  3262     0735  0022               	movlb	2	; select bank2
  3263     0736  0846               	movf	log10f@lo^(0+256),w
  3264     0737  0020               	movlb	0	; select bank0
  3265     0738  00A4               	movwf	___flmul@a
  3266     0739  318D  25F0  3181   	fcall	___flmul
  3267     073C  0020               	movlb	0	; select bank0
  3268     073D  0823               	movf	?___flmul+3,w
  3269     073E  00BD               	movwf	___fladd@b+3
  3270     073F  0822               	movf	?___flmul+2,w
  3271     0740  00BC               	movwf	___fladd@b+2
  3272     0741  0821               	movf	?___flmul+1,w
  3273     0742  00BB               	movwf	___fladd@b+1
  3274     0743  0820               	movf	?___flmul,w
  3275     0744  00BA               	movwf	___fladd@b
  3276     0745  0022               	movlb	2	; select bank2
  3277     0746  084D               	movf	(_log10f$766+3)^(0+256),w
  3278     0747  0020               	movlb	0	; select bank0
  3279     0748  00C1               	movwf	___fladd@a+3
  3280     0749  0022               	movlb	2	; select bank2
  3281     074A  084C               	movf	(_log10f$766+2)^(0+256),w
  3282     074B  0020               	movlb	0	; select bank0
  3283     074C  00C0               	movwf	___fladd@a+2
  3284     074D  0022               	movlb	2	; select bank2
  3285     074E  084B               	movf	(_log10f$766+1)^(0+256),w
  3286     074F  0020               	movlb	0	; select bank0
  3287     0750  00BF               	movwf	___fladd@a+1
  3288     0751  0022               	movlb	2	; select bank2
  3289     0752  084A               	movf	_log10f$766^(0+256),w
  3290     0753  0020               	movlb	0	; select bank0
  3291     0754  00BE               	movwf	___fladd@a
  3292     0755  3180  2024  3181   	fcall	___fladd
  3293     0758  0020               	movlb	0	; select bank0
  3294     0759  083D               	movf	?___fladd+3,w
  3295     075A  0022               	movlb	2	; select bank2
  3296     075B  00BB               	movwf	(_log10f$769+3)^(0+256)
  3297     075C  0020               	movlb	0	; select bank0
  3298     075D  083C               	movf	?___fladd+2,w
  3299     075E  0022               	movlb	2	; select bank2
  3300     075F  00BA               	movwf	(_log10f$769+2)^(0+256)
  3301     0760  0020               	movlb	0	; select bank0
  3302     0761  083B               	movf	?___fladd+1,w
  3303     0762  0022               	movlb	2	; select bank2
  3304     0763  00B9               	movwf	(_log10f$769+1)^(0+256)
  3305     0764  0020               	movlb	0	; select bank0
  3306     0765  083A               	movf	?___fladd,w
  3307     0766  0022               	movlb	2	; select bank2
  3308     0767  00B8               	movwf	_log10f$769^(0+256)
  3309     0768  303E               	movlw	62
  3310     0769  0020               	movlb	0	; select bank0
  3311     076A  00A3               	movwf	___flmul@b+3
  3312     076B  30DE               	movlw	222
  3313     076C  00A2               	movwf	___flmul@b+2
  3314     076D  3060               	movlw	96
  3315     076E  00A1               	movwf	___flmul@b+1
  3316     076F  3000               	movlw	0
  3317     0770  00A0               	movwf	___flmul@b
  3318     0771  0022               	movlb	2	; select bank2
  3319     0772  0865               	movf	(log10f@hi+3)^(0+256),w
  3320     0773  0020               	movlb	0	; select bank0
  3321     0774  00A7               	movwf	___flmul@a+3
  3322     0775  0022               	movlb	2	; select bank2
  3323     0776  0864               	movf	(log10f@hi+2)^(0+256),w
  3324     0777  0020               	movlb	0	; select bank0
  3325     0778  00A6               	movwf	___flmul@a+2
  3326     0779  0022               	movlb	2	; select bank2
  3327     077A  0863               	movf	(log10f@hi+1)^(0+256),w
  3328     077B  0020               	movlb	0	; select bank0
  3329     077C  00A5               	movwf	___flmul@a+1
  3330     077D  0022               	movlb	2	; select bank2
  3331     077E  0862               	movf	log10f@hi^(0+256),w
  3332     077F  0020               	movlb	0	; select bank0
  3333     0780  00A4               	movwf	___flmul@a
  3334     0781  318D  25F0  3181   	fcall	___flmul
  3335     0784  0020               	movlb	0	; select bank0
  3336     0785  0823               	movf	?___flmul+3,w
  3337     0786  00BD               	movwf	___fladd@b+3
  3338     0787  0822               	movf	?___flmul+2,w
  3339     0788  00BC               	movwf	___fladd@b+2
  3340     0789  0821               	movf	?___flmul+1,w
  3341     078A  00BB               	movwf	___fladd@b+1
  3342     078B  0820               	movf	?___flmul,w
  3343     078C  00BA               	movwf	___fladd@b
  3344     078D  0022               	movlb	2	; select bank2
  3345     078E  083B               	movf	(_log10f$769+3)^(0+256),w
  3346     078F  0020               	movlb	0	; select bank0
  3347     0790  00C1               	movwf	___fladd@a+3
  3348     0791  0022               	movlb	2	; select bank2
  3349     0792  083A               	movf	(_log10f$769+2)^(0+256),w
  3350     0793  0020               	movlb	0	; select bank0
  3351     0794  00C0               	movwf	___fladd@a+2
  3352     0795  0022               	movlb	2	; select bank2
  3353     0796  0839               	movf	(_log10f$769+1)^(0+256),w
  3354     0797  0020               	movlb	0	; select bank0
  3355     0798  00BF               	movwf	___fladd@a+1
  3356     0799  0022               	movlb	2	; select bank2
  3357     079A  0838               	movf	_log10f$769^(0+256),w
  3358     079B  0020               	movlb	0	; select bank0
  3359     079C  00BE               	movwf	___fladd@a
  3360     079D  3180  2024  3181   	fcall	___fladd
  3361     07A0  0020               	movlb	0	; select bank0
  3362     07A1  083D               	movf	?___fladd+3,w
  3363     07A2  0022               	movlb	2	; select bank2
  3364     07A3  00BF               	movwf	(_log10f$770+3)^(0+256)
  3365     07A4  0020               	movlb	0	; select bank0
  3366     07A5  083C               	movf	?___fladd+2,w
  3367     07A6  0022               	movlb	2	; select bank2
  3368     07A7  00BE               	movwf	(_log10f$770+2)^(0+256)
  3369     07A8  0020               	movlb	0	; select bank0
  3370     07A9  083B               	movf	?___fladd+1,w
  3371     07AA  0022               	movlb	2	; select bank2
  3372     07AB  00BD               	movwf	(_log10f$770+1)^(0+256)
  3373     07AC  0020               	movlb	0	; select bank0
  3374     07AD  083A               	movf	?___fladd,w
  3375     07AE  0022               	movlb	2	; select bank2
  3376     07AF  00BC               	movwf	_log10f$770^(0+256)
  3377     07B0  303E               	movlw	62
  3378     07B1  0020               	movlb	0	; select bank0
  3379     07B2  00A3               	movwf	___flmul@b+3
  3380     07B3  309A               	movlw	154
  3381     07B4  00A2               	movwf	___flmul@b+2
  3382     07B5  3020               	movlw	32
  3383     07B6  00A1               	movwf	___flmul@b+1
  3384     07B7  3080               	movlw	128
  3385     07B8  00A0               	movwf	___flmul@b
  3386     07B9  0022               	movlb	2	; select bank2
  3387     07BA  0845               	movf	(log10f@dk+3)^(0+256),w
  3388     07BB  0020               	movlb	0	; select bank0
  3389     07BC  00A7               	movwf	___flmul@a+3
  3390     07BD  0022               	movlb	2	; select bank2
  3391     07BE  0844               	movf	(log10f@dk+2)^(0+256),w
  3392     07BF  0020               	movlb	0	; select bank0
  3393     07C0  00A6               	movwf	___flmul@a+2
  3394     07C1  0022               	movlb	2	; select bank2
  3395     07C2  0843               	movf	(log10f@dk+1)^(0+256),w
  3396     07C3  0020               	movlb	0	; select bank0
  3397     07C4  00A5               	movwf	___flmul@a+1
  3398     07C5  0022               	movlb	2	; select bank2
  3399     07C6  0842               	movf	log10f@dk^(0+256),w
  3400     07C7  0020               	movlb	0	; select bank0
  3401     07C8  00A4               	movwf	___flmul@a
  3402     07C9  318D  25F0  3181   	fcall	___flmul
  3403     07CC  0020               	movlb	0	; select bank0
  3404     07CD  0823               	movf	?___flmul+3,w
  3405     07CE  00BD               	movwf	___fladd@b+3
  3406     07CF  0822               	movf	?___flmul+2,w
  3407     07D0  00BC               	movwf	___fladd@b+2
  3408     07D1  0821               	movf	?___flmul+1,w
  3409     07D2  00BB               	movwf	___fladd@b+1
  3410     07D3  0820               	movf	?___flmul,w
  3411     07D4  00BA               	movwf	___fladd@b
  3412     07D5  0022               	movlb	2	; select bank2
  3413     07D6  083F               	movf	(_log10f$770+3)^(0+256),w
  3414     07D7  0020               	movlb	0	; select bank0
  3415     07D8  00C1               	movwf	___fladd@a+3
  3416     07D9  0022               	movlb	2	; select bank2
  3417     07DA  083E               	movf	(_log10f$770+2)^(0+256),w
  3418     07DB  0020               	movlb	0	; select bank0
  3419     07DC  00C0               	movwf	___fladd@a+2
  3420     07DD  0022               	movlb	2	; select bank2
  3421     07DE  083D               	movf	(_log10f$770+1)^(0+256),w
  3422     07DF  0020               	movlb	0	; select bank0
  3423     07E0  00BF               	movwf	___fladd@a+1
  3424     07E1  0022               	movlb	2	; select bank2
  3425     07E2  083C               	movf	_log10f$770^(0+256),w
  3426     07E3  0020               	movlb	0	; select bank0
  3427     07E4  00BE               	movwf	___fladd@a
  3428     07E5  3180  2024         	fcall	___fladd
  3429     07E7  0020               	movlb	0	; select bank0
  3430     07E8  083D               	movf	?___fladd+3,w
  3431     07E9  00EB               	movwf	?_log10f+3
  3432     07EA  083C               	movf	?___fladd+2,w
  3433     07EB  00EA               	movwf	?_log10f+2
  3434     07EC  083B               	movf	?___fladd+1,w
  3435     07ED  00E9               	movwf	?_log10f+1
  3436     07EE  083A               	movf	?___fladd,w
  3437     07EF  00E8               	movwf	?_log10f
  3438     07F0  0008               	return
  3439     07F1                     __end_of_log10f:
  3440                           
  3441                           	psect	text5
  3442     0BED                     __ptext5:	
  3443 ;; *************** function ___xxtofl *****************
  3444 ;; Defined at:
  3445 ;;		line 10 in file "/Applications/microchip/xc8/v2.45/pic/sources/c99/common/xxtofl.c"
  3446 ;; Parameters:    Size  Location     Type
  3447 ;;  sign            1    wreg     unsigned char 
  3448 ;;  val             4    0[COMMON] long 
  3449 ;; Auto vars:     Size  Location     Type
  3450 ;;  sign            1    8[COMMON] unsigned char 
  3451 ;;  arg             4   10[COMMON] unsigned long 
  3452 ;;  exp             1    9[COMMON] unsigned char 
  3453 ;; Return value:  Size  Location     Type
  3454 ;;                  4    0[COMMON] unsigned char 
  3455 ;; Registers used:
  3456 ;;		wreg, status,2, status,0
  3457 ;; Tracked objects:
  3458 ;;		On entry : 0/0
  3459 ;;		On exit  : 0/0
  3460 ;;		Unchanged: 0/0
  3461 ;; Data sizes:     COMMON   BANK0   BANK1   BANK2
  3462 ;;      Params:         4       0       0       0
  3463 ;;      Locals:         6       0       0       0
  3464 ;;      Temps:          4       0       0       0
  3465 ;;      Totals:        14       0       0       0
  3466 ;;Total ram usage:       14 bytes
  3467 ;; Hardware stack levels used: 1
  3468 ;; This function calls:
  3469 ;;		Nothing
  3470 ;; This function is called by:
  3471 ;;		_CONVERT_SPEED_TO_LOG
  3472 ;;		_log10f
  3473 ;; This function uses a non-reentrant model
  3474 ;;
  3475                           
  3476     0BED                     ___xxtofl:	
  3477                           ;psect for function ___xxtofl
  3478                           
  3479                           
  3480                           ;incstack = 0
  3481                           ; Regs used in ___xxtofl: [wreg+status,2+status,0]
  3482                           ;___xxtofl@sign stored from wreg
  3483     0BED  00F8               	movwf	___xxtofl@sign
  3484     0BEE  0878               	movf	___xxtofl@sign,w
  3485     0BEF  1D03               	btfss	3,2
  3486     0BF0  1FF3               	btfss	___xxtofl@val+3,7
  3487     0BF1  2C02               	goto	l2001
  3488     0BF2  0970               	comf	___xxtofl@val,w
  3489     0BF3  00FA               	movwf	___xxtofl@arg
  3490     0BF4  0971               	comf	___xxtofl@val+1,w
  3491     0BF5  00FB               	movwf	___xxtofl@arg+1
  3492     0BF6  0972               	comf	___xxtofl@val+2,w
  3493     0BF7  00FC               	movwf	___xxtofl@arg+2
  3494     0BF8  0973               	comf	___xxtofl@val+3,w
  3495     0BF9  00FD               	movwf	___xxtofl@arg+3
  3496     0BFA  0AFA               	incf	___xxtofl@arg,f
  3497     0BFB  1903               	skipnz
  3498     0BFC  0AFB               	incf	___xxtofl@arg+1,f
  3499     0BFD  1903               	skipnz
  3500     0BFE  0AFC               	incf	___xxtofl@arg+2,f
  3501     0BFF  1903               	skipnz
  3502     0C00  0AFD               	incf	___xxtofl@arg+3,f
  3503     0C01  2C0A               	goto	l696
  3504     0C02                     l2001:
  3505     0C02  0873               	movf	___xxtofl@val+3,w
  3506     0C03  00FD               	movwf	___xxtofl@arg+3
  3507     0C04  0872               	movf	___xxtofl@val+2,w
  3508     0C05  00FC               	movwf	___xxtofl@arg+2
  3509     0C06  0871               	movf	___xxtofl@val+1,w
  3510     0C07  00FB               	movwf	___xxtofl@arg+1
  3511     0C08  0870               	movf	___xxtofl@val,w
  3512     0C09  00FA               	movwf	___xxtofl@arg
  3513     0C0A                     l696:
  3514     0C0A  0873               	movf	___xxtofl@val+3,w
  3515     0C0B  0472               	iorwf	___xxtofl@val+2,w
  3516     0C0C  0471               	iorwf	___xxtofl@val+1,w
  3517     0C0D  0470               	iorwf	___xxtofl@val,w
  3518     0C0E  1D03               	skipz
  3519     0C0F  2C19               	goto	l2007
  3520     0C10  3000               	movlw	0
  3521     0C11  00F3               	movwf	?___xxtofl+3
  3522     0C12  3000               	movlw	0
  3523     0C13  00F2               	movwf	?___xxtofl+2
  3524     0C14  3000               	movlw	0
  3525     0C15  00F1               	movwf	?___xxtofl+1
  3526     0C16  3000               	movlw	0
  3527     0C17  00F0               	movwf	?___xxtofl
  3528     0C18  0008               	return
  3529     0C19                     l2007:
  3530     0C19  3096               	movlw	150
  3531     0C1A  00F9               	movwf	___xxtofl@exp
  3532     0C1B                     l2011:
  3533     0C1B  30FE               	movlw	254
  3534     0C1C  057D               	andwf	___xxtofl@arg+3,w
  3535     0C1D  1903               	btfsc	3,2
  3536     0C1E  2C3E               	goto	l702
  3537     0C1F  3001               	movlw	1
  3538     0C20  00F4               	movwf	??___xxtofl
  3539     0C21  0874               	movf	??___xxtofl,w
  3540     0C22  07F9               	addwf	___xxtofl@exp,f
  3541     0C23  3001               	movlw	1
  3542     0C24                     u2455:
  3543     0C24  36FD               	lsrf	___xxtofl@arg+3,f
  3544     0C25  0CFC               	rrf	___xxtofl@arg+2,f
  3545     0C26  0CFB               	rrf	___xxtofl@arg+1,f
  3546     0C27  0CFA               	rrf	___xxtofl@arg,f
  3547     0C28  0B89               	decfsz	9,f
  3548     0C29  2C24               	goto	u2455
  3549     0C2A  2C1B               	goto	l2011
  3550     0C2B                     l2013:
  3551     0C2B  3001               	movlw	1
  3552     0C2C  00F4               	movwf	??___xxtofl
  3553     0C2D  0874               	movf	??___xxtofl,w
  3554     0C2E  07F9               	addwf	___xxtofl@exp,f
  3555     0C2F  3001               	movlw	1
  3556     0C30  07FA               	addwf	___xxtofl@arg,f
  3557     0C31  3000               	movlw	0
  3558     0C32  3DFB               	addwfc	___xxtofl@arg+1,f
  3559     0C33  3000               	movlw	0
  3560     0C34  3DFC               	addwfc	___xxtofl@arg+2,f
  3561     0C35  3000               	movlw	0
  3562     0C36  3DFD               	addwfc	___xxtofl@arg+3,f
  3563     0C37  3001               	movlw	1
  3564     0C38                     u2475:
  3565     0C38  36FD               	lsrf	___xxtofl@arg+3,f
  3566     0C39  0CFC               	rrf	___xxtofl@arg+2,f
  3567     0C3A  0CFB               	rrf	___xxtofl@arg+1,f
  3568     0C3B  0CFA               	rrf	___xxtofl@arg,f
  3569     0C3C  0B89               	decfsz	9,f
  3570     0C3D  2C38               	goto	u2475
  3571     0C3E                     l702:
  3572     0C3E  30FF               	movlw	255
  3573     0C3F  057D               	andwf	___xxtofl@arg+3,w
  3574     0C40  1903               	btfsc	3,2
  3575     0C41  2C50               	goto	l2021
  3576     0C42  2C2B               	goto	l2013
  3577     0C43                     l2023:
  3578     0C43  3002               	movlw	2
  3579     0C44  0279               	subwf	___xxtofl@exp,w
  3580     0C45  1C03               	btfss	3,0
  3581     0C46  2C52               	goto	l709
  3582     0C47  3001               	movlw	1
  3583     0C48  02F9               	subwf	___xxtofl@exp,f
  3584     0C49  3001               	movlw	1
  3585     0C4A                     u2495:
  3586     0C4A  35FA               	lslf	___xxtofl@arg,f
  3587     0C4B  0DFB               	rlf	___xxtofl@arg+1,f
  3588     0C4C  0DFC               	rlf	___xxtofl@arg+2,f
  3589     0C4D  0DFD               	rlf	___xxtofl@arg+3,f
  3590     0C4E  0B89               	decfsz	9,f
  3591     0C4F  2C4A               	goto	u2495
  3592     0C50                     l2021:
  3593     0C50  1FFC               	btfss	___xxtofl@arg+2,7
  3594     0C51  2C43               	goto	l2023
  3595     0C52                     l709:
  3596     0C52  1879               	btfsc	___xxtofl@exp,0
  3597     0C53  2C5C               	goto	l710
  3598     0C54  30FF               	movlw	255
  3599     0C55  05FA               	andwf	___xxtofl@arg,f
  3600     0C56  30FF               	movlw	255
  3601     0C57  05FB               	andwf	___xxtofl@arg+1,f
  3602     0C58  307F               	movlw	127
  3603     0C59  05FC               	andwf	___xxtofl@arg+2,f
  3604     0C5A  30FF               	movlw	255
  3605     0C5B  05FD               	andwf	___xxtofl@arg+3,f
  3606     0C5C                     l710:
  3607     0C5C  1003               	clrc
  3608     0C5D  0CF9               	rrf	___xxtofl@exp,f
  3609     0C5E  0879               	movf	___xxtofl@exp,w
  3610     0C5F  00F4               	movwf	??___xxtofl
  3611     0C60  01F5               	clrf	??___xxtofl+1
  3612     0C61  01F6               	clrf	??___xxtofl+2
  3613     0C62  01F7               	clrf	??___xxtofl+3
  3614     0C63  3018               	movlw	24
  3615     0C64                     u2535:
  3616     0C64  35F4               	lslf	??___xxtofl,f
  3617     0C65  0DF5               	rlf	??___xxtofl+1,f
  3618     0C66  0DF6               	rlf	??___xxtofl+2,f
  3619     0C67  0DF7               	rlf	??___xxtofl+3,f
  3620     0C68  0B89               	decfsz	9,f
  3621     0C69  2C64               	goto	u2535
  3622     0C6A  0874               	movf	??___xxtofl,w
  3623     0C6B  04FA               	iorwf	___xxtofl@arg,f
  3624     0C6C  0875               	movf	??___xxtofl+1,w
  3625     0C6D  04FB               	iorwf	___xxtofl@arg+1,f
  3626     0C6E  0876               	movf	??___xxtofl+2,w
  3627     0C6F  04FC               	iorwf	___xxtofl@arg+2,f
  3628     0C70  0877               	movf	??___xxtofl+3,w
  3629     0C71  04FD               	iorwf	___xxtofl@arg+3,f
  3630     0C72  0878               	movf	___xxtofl@sign,w
  3631     0C73  1D03               	btfss	3,2
  3632     0C74  1FF3               	btfss	___xxtofl@val+3,7
  3633     0C75  2C77               	goto	l2035
  3634     0C76  17FD               	bsf	___xxtofl@arg+3,7
  3635     0C77                     l2035:
  3636     0C77  087D               	movf	___xxtofl@arg+3,w
  3637     0C78  00F3               	movwf	?___xxtofl+3
  3638     0C79  087C               	movf	___xxtofl@arg+2,w
  3639     0C7A  00F2               	movwf	?___xxtofl+2
  3640     0C7B  087B               	movf	___xxtofl@arg+1,w
  3641     0C7C  00F1               	movwf	?___xxtofl+1
  3642     0C7D  087A               	movf	___xxtofl@arg,w
  3643     0C7E  00F0               	movwf	?___xxtofl
  3644     0C7F  0008               	return
  3645     0C80                     __end_of___xxtofl:
  3646                           
  3647                           	psect	text6
  3648     0005                     __ptext6:	
  3649 ;; *************** function ___flsub *****************
  3650 ;; Defined at:
  3651 ;;		line 242 in file "/Applications/microchip/xc8/v2.45/pic/sources/c99/common/sprcadd.c"
  3652 ;; Parameters:    Size  Location     Type
  3653 ;;  a               4   46[BANK0 ] unsigned char 
  3654 ;;  b               4   50[BANK0 ] unsigned char 
  3655 ;; Auto vars:     Size  Location     Type
  3656 ;;		None
  3657 ;; Return value:  Size  Location     Type
  3658 ;;                  4   46[BANK0 ] unsigned char 
  3659 ;; Registers used:
  3660 ;;		wreg, status,2, status,0, pclath, cstack
  3661 ;; Tracked objects:
  3662 ;;		On entry : 0/0
  3663 ;;		On exit  : 0/0
  3664 ;;		Unchanged: 0/0
  3665 ;; Data sizes:     COMMON   BANK0   BANK1   BANK2
  3666 ;;      Params:         0       8       0       0
  3667 ;;      Locals:         0       0       0       0
  3668 ;;      Temps:          0       0       0       0
  3669 ;;      Totals:         0       8       0       0
  3670 ;;Total ram usage:        8 bytes
  3671 ;; Hardware stack levels used: 1
  3672 ;; Hardware stack levels required when called: 1
  3673 ;; This function calls:
  3674 ;;		___fladd
  3675 ;; This function is called by:
  3676 ;;		_log10f
  3677 ;; This function uses a non-reentrant model
  3678 ;;
  3679                           
  3680     0005                     ___flsub:	
  3681                           ;psect for function ___flsub
  3682                           
  3683                           
  3684                           ;incstack = 0
  3685                           ; Regs used in ___flsub: [wreg+status,2+status,0+pclath+cstack]
  3686     0005  3080               	movlw	128
  3687     0006  0020               	movlb	0	; select bank0
  3688     0007  06D1               	xorwf	___flsub@a+3,f
  3689     0008  0855               	movf	___flsub@b+3,w
  3690     0009  00BD               	movwf	___fladd@b+3
  3691     000A  0854               	movf	___flsub@b+2,w
  3692     000B  00BC               	movwf	___fladd@b+2
  3693     000C  0853               	movf	___flsub@b+1,w
  3694     000D  00BB               	movwf	___fladd@b+1
  3695     000E  0852               	movf	___flsub@b,w
  3696     000F  00BA               	movwf	___fladd@b
  3697     0010  0851               	movf	___flsub@a+3,w
  3698     0011  00C1               	movwf	___fladd@a+3
  3699     0012  0850               	movf	___flsub@a+2,w
  3700     0013  00C0               	movwf	___fladd@a+2
  3701     0014  084F               	movf	___flsub@a+1,w
  3702     0015  00BF               	movwf	___fladd@a+1
  3703     0016  084E               	movf	___flsub@a,w
  3704     0017  00BE               	movwf	___fladd@a
  3705     0018  3180  2024         	fcall	___fladd
  3706     001A  0020               	movlb	0	; select bank0
  3707     001B  083D               	movf	?___fladd+3,w
  3708     001C  00D1               	movwf	?___flsub+3
  3709     001D  083C               	movf	?___fladd+2,w
  3710     001E  00D0               	movwf	?___flsub+2
  3711     001F  083B               	movf	?___fladd+1,w
  3712     0020  00CF               	movwf	?___flsub+1
  3713     0021  083A               	movf	?___fladd,w
  3714     0022  00CE               	movwf	?___flsub
  3715     0023  0008               	return
  3716     0024                     __end_of___flsub:
  3717                           
  3718                           	psect	text7
  3719     0024                     __ptext7:	
  3720 ;; *************** function ___fladd *****************
  3721 ;; Defined at:
  3722 ;;		line 10 in file "/Applications/microchip/xc8/v2.45/pic/sources/c99/common/sprcadd.c"
  3723 ;; Parameters:    Size  Location     Type
  3724 ;;  b               4   26[BANK0 ] unsigned char 
  3725 ;;  a               4   30[BANK0 ] unsigned char 
  3726 ;; Auto vars:     Size  Location     Type
  3727 ;;  grs             1   45[BANK0 ] unsigned char 
  3728 ;;  bexp            1   44[BANK0 ] unsigned char 
  3729 ;;  aexp            1   43[BANK0 ] unsigned char 
  3730 ;;  signs           1   42[BANK0 ] unsigned char 
  3731 ;; Return value:  Size  Location     Type
  3732 ;;                  4   26[BANK0 ] unsigned char 
  3733 ;; Registers used:
  3734 ;;		wreg, status,2, status,0
  3735 ;; Tracked objects:
  3736 ;;		On entry : 0/0
  3737 ;;		On exit  : 0/0
  3738 ;;		Unchanged: 0/0
  3739 ;; Data sizes:     COMMON   BANK0   BANK1   BANK2
  3740 ;;      Params:         0       8       0       0
  3741 ;;      Locals:         0       4       0       0
  3742 ;;      Temps:          0       8       0       0
  3743 ;;      Totals:         0      20       0       0
  3744 ;;Total ram usage:       20 bytes
  3745 ;; Hardware stack levels used: 1
  3746 ;; This function calls:
  3747 ;;		Nothing
  3748 ;; This function is called by:
  3749 ;;		___flsub
  3750 ;;		_log10f
  3751 ;; This function uses a non-reentrant model
  3752 ;;
  3753                           
  3754     0024                     ___fladd:	
  3755                           ;psect for function ___fladd
  3756                           
  3757                           
  3758                           ;incstack = 0
  3759                           ; Regs used in ___fladd: [wreg+status,2+status,0]
  3760     0024  0020               	movlb	0	; select bank0
  3761     0025  083D               	movf	___fladd@b+3,w
  3762     0026  3980               	andlw	128
  3763     0027  00CA               	movwf	___fladd@signs
  3764     0028  353D               	lslf	___fladd@b+3,w
  3765     0029  00CC               	movwf	___fladd@bexp
  3766     002A  1BBC               	btfsc	___fladd@b+2,7
  3767     002B  144C               	bsf	___fladd@bexp,0
  3768     002C  084C               	movf	___fladd@bexp,w
  3769     002D  1903               	btfsc	3,2
  3770     002E  283D               	goto	l1519
  3771     002F  0A4C               	incf	___fladd@bexp,w
  3772     0030  1D03               	btfss	3,2
  3773     0031  283A               	goto	l1515
  3774     0032  3000               	movlw	0
  3775     0033  00BD               	movwf	___fladd@b+3
  3776     0034  3000               	movlw	0
  3777     0035  00BC               	movwf	___fladd@b+2
  3778     0036  3000               	movlw	0
  3779     0037  00BB               	movwf	___fladd@b+1
  3780     0038  3000               	movlw	0
  3781     0039  00BA               	movwf	___fladd@b
  3782     003A                     l1515:
  3783     003A  17BC               	bsf	___fladd@b+2,7
  3784     003B  01BD               	clrf	___fladd@b+3
  3785     003C  2845               	goto	l1521
  3786     003D                     l1519:
  3787     003D  3000               	movlw	0
  3788     003E  00BD               	movwf	___fladd@b+3
  3789     003F  3000               	movlw	0
  3790     0040  00BC               	movwf	___fladd@b+2
  3791     0041  3000               	movlw	0
  3792     0042  00BB               	movwf	___fladd@b+1
  3793     0043  3000               	movlw	0
  3794     0044  00BA               	movwf	___fladd@b
  3795     0045                     l1521:
  3796     0045  0841               	movf	___fladd@a+3,w
  3797     0046  3980               	andlw	128
  3798     0047  00CB               	movwf	___fladd@aexp
  3799     0048  084B               	movf	___fladd@aexp,w
  3800     0049  064A               	xorwf	___fladd@signs,w
  3801     004A  1D03               	btfss	3,2
  3802     004B  174A               	bsf	___fladd@signs,6
  3803     004C  3541               	lslf	___fladd@a+3,w
  3804     004D  00CB               	movwf	___fladd@aexp
  3805     004E  1BC0               	btfsc	___fladd@a+2,7
  3806     004F  144B               	bsf	___fladd@aexp,0
  3807     0050  084B               	movf	___fladd@aexp,w
  3808     0051  1903               	btfsc	3,2
  3809     0052  2861               	goto	l1543
  3810     0053  0A4B               	incf	___fladd@aexp,w
  3811     0054  1D03               	btfss	3,2
  3812     0055  285E               	goto	l1539
  3813     0056  3000               	movlw	0
  3814     0057  00C1               	movwf	___fladd@a+3
  3815     0058  3000               	movlw	0
  3816     0059  00C0               	movwf	___fladd@a+2
  3817     005A  3000               	movlw	0
  3818     005B  00BF               	movwf	___fladd@a+1
  3819     005C  3000               	movlw	0
  3820     005D  00BE               	movwf	___fladd@a
  3821     005E                     l1539:
  3822     005E  17C0               	bsf	___fladd@a+2,7
  3823     005F  01C1               	clrf	___fladd@a+3
  3824     0060  2869               	goto	l556
  3825     0061                     l1543:
  3826     0061  3000               	movlw	0
  3827     0062  00C1               	movwf	___fladd@a+3
  3828     0063  3000               	movlw	0
  3829     0064  00C0               	movwf	___fladd@a+2
  3830     0065  3000               	movlw	0
  3831     0066  00BF               	movwf	___fladd@a+1
  3832     0067  3000               	movlw	0
  3833     0068  00BE               	movwf	___fladd@a
  3834     0069                     l556:
  3835     0069  084C               	movf	___fladd@bexp,w
  3836     006A  024B               	subwf	___fladd@aexp,w
  3837     006B  1803               	skipnc
  3838     006C  2891               	goto	l1579
  3839     006D  1F4A               	btfss	___fladd@signs,6
  3840     006E  2873               	goto	l1549
  3841     006F  3080               	movlw	128
  3842     0070  00C2               	movwf	??___fladd
  3843     0071  0842               	movf	??___fladd,w
  3844     0072  06CA               	xorwf	___fladd@signs,f
  3845     0073                     l1549:
  3846     0073  084C               	movf	___fladd@bexp,w
  3847     0074  00CD               	movwf	___fladd@grs
  3848     0075  084B               	movf	___fladd@aexp,w
  3849     0076  00CC               	movwf	___fladd@bexp
  3850     0077  084D               	movf	___fladd@grs,w
  3851     0078  00CB               	movwf	___fladd@aexp
  3852     0079  083A               	movf	___fladd@b,w
  3853     007A  00CD               	movwf	___fladd@grs
  3854     007B  083E               	movf	___fladd@a,w
  3855     007C  00BA               	movwf	___fladd@b
  3856     007D  084D               	movf	___fladd@grs,w
  3857     007E  00BE               	movwf	___fladd@a
  3858     007F  083B               	movf	___fladd@b+1,w
  3859     0080  00CD               	movwf	___fladd@grs
  3860     0081  083F               	movf	___fladd@a+1,w
  3861     0082  00BB               	movwf	___fladd@b+1
  3862     0083  084D               	movf	___fladd@grs,w
  3863     0084  00BF               	movwf	___fladd@a+1
  3864     0085  083C               	movf	___fladd@b+2,w
  3865     0086  00CD               	movwf	___fladd@grs
  3866     0087  0840               	movf	___fladd@a+2,w
  3867     0088  00BC               	movwf	___fladd@b+2
  3868     0089  084D               	movf	___fladd@grs,w
  3869     008A  00C0               	movwf	___fladd@a+2
  3870     008B  083D               	movf	___fladd@b+3,w
  3871     008C  00CD               	movwf	___fladd@grs
  3872     008D  0841               	movf	___fladd@a+3,w
  3873     008E  00BD               	movwf	___fladd@b+3
  3874     008F  084D               	movf	___fladd@grs,w
  3875     0090  00C1               	movwf	___fladd@a+3
  3876     0091                     l1579:
  3877     0091  01CD               	clrf	___fladd@grs
  3878     0092  084B               	movf	___fladd@aexp,w
  3879     0093  00C2               	movwf	??___fladd
  3880     0094  01C3               	clrf	??___fladd+1
  3881     0095  0843               	movf	??___fladd+1,w
  3882     0096  00C5               	movwf	??___fladd+3
  3883     0097  084C               	movf	___fladd@bexp,w
  3884     0098  0242               	subwf	??___fladd,w
  3885     0099  00C4               	movwf	??___fladd+2
  3886     009A  1C03               	skipc
  3887     009B  03C5               	decf	??___fladd+3,f
  3888     009C  0845               	movf	??___fladd+3,w
  3889     009D  3A80               	xorlw	128
  3890     009E  00C6               	movwf	??___fladd+4
  3891     009F  3080               	movlw	128
  3892     00A0  0246               	subwf	??___fladd+4,w
  3893     00A1  1D03               	skipz
  3894     00A2  28A5               	goto	u1505
  3895     00A3  301A               	movlw	26
  3896     00A4  0244               	subwf	??___fladd+2,w
  3897     00A5                     u1505:
  3898     00A5  1C03               	skipc
  3899     00A6  28D3               	goto	l1597
  3900     00A7  0020               	movlb	0	; select bank0
  3901     00A8  083D               	movf	___fladd@b+3,w
  3902     00A9  043C               	iorwf	___fladd@b+2,w
  3903     00AA  043B               	iorwf	___fladd@b+1,w
  3904     00AB  043A               	iorwf	___fladd@b,w
  3905     00AC  1903               	btfsc	3,2
  3906     00AD  28B0               	goto	u1510
  3907     00AE  3001               	movlw	1
  3908     00AF  28B1               	goto	u1520
  3909     00B0                     u1510:
  3910     00B0  3000               	movlw	0
  3911     00B1                     u1520:
  3912     00B1  00CD               	movwf	___fladd@grs
  3913     00B2  3000               	movlw	0
  3914     00B3  00BD               	movwf	___fladd@b+3
  3915     00B4  3000               	movlw	0
  3916     00B5  00BC               	movwf	___fladd@b+2
  3917     00B6  3000               	movlw	0
  3918     00B7  00BB               	movwf	___fladd@b+1
  3919     00B8  3000               	movlw	0
  3920     00B9  00BA               	movwf	___fladd@b
  3921     00BA  084B               	movf	___fladd@aexp,w
  3922     00BB  00CC               	movwf	___fladd@bexp
  3923     00BC  28D8               	goto	l560
  3924     00BD                     l562:
  3925     00BD  1C4D               	btfss	___fladd@grs,0
  3926     00BE  28C3               	goto	l1587
  3927     00BF  364D               	lsrf	___fladd@grs,w
  3928     00C0  3801               	iorlw	1
  3929     00C1  00CD               	movwf	___fladd@grs
  3930     00C2  28C5               	goto	l1589
  3931     00C3                     l1587:
  3932     00C3  1003               	clrc
  3933     00C4  0CCD               	rrf	___fladd@grs,f
  3934     00C5                     l1589:
  3935     00C5  183A               	btfsc	___fladd@b,0
  3936     00C6  17CD               	bsf	___fladd@grs,7
  3937     00C7  3001               	movlw	1
  3938     00C8  00C2               	movwf	??___fladd
  3939     00C9                     u1555:
  3940     00C9  37BD               	asrf	___fladd@b+3,f
  3941     00CA  0CBC               	rrf	___fladd@b+2,f
  3942     00CB  0CBB               	rrf	___fladd@b+1,f
  3943     00CC  0CBA               	rrf	___fladd@b,f
  3944     00CD  0BC2               	decfsz	??___fladd& (0+127),f
  3945     00CE  28C9               	goto	u1555
  3946     00CF  3001               	movlw	1
  3947     00D0  00C2               	movwf	??___fladd
  3948     00D1  0842               	movf	??___fladd,w
  3949     00D2  07CC               	addwf	___fladd@bexp,f
  3950     00D3                     l1597:
  3951     00D3  0020               	movlb	0	; select bank0
  3952     00D4  084B               	movf	___fladd@aexp,w
  3953     00D5  024C               	subwf	___fladd@bexp,w
  3954     00D6  1C03               	skipc
  3955     00D7  28BD               	goto	l562
  3956     00D8                     l560:
  3957     00D8  1B4A               	btfsc	___fladd@signs,6
  3958     00D9  2907               	goto	l1623
  3959     00DA  084C               	movf	___fladd@bexp,w
  3960     00DB  1D03               	btfss	3,2
  3961     00DC  28E6               	goto	l1605
  3962     00DD  3000               	movlw	0
  3963     00DE  00BD               	movwf	?___fladd+3
  3964     00DF  3000               	movlw	0
  3965     00E0  00BC               	movwf	?___fladd+2
  3966     00E1  3000               	movlw	0
  3967     00E2  00BB               	movwf	?___fladd+1
  3968     00E3  3000               	movlw	0
  3969     00E4  00BA               	movwf	?___fladd
  3970     00E5  0008               	return
  3971     00E6                     l1605:
  3972     00E6  083E               	movf	___fladd@a,w
  3973     00E7  07BA               	addwf	___fladd@b,f
  3974     00E8  083F               	movf	___fladd@a+1,w
  3975     00E9  3DBB               	addwfc	___fladd@b+1,f
  3976     00EA  0840               	movf	___fladd@a+2,w
  3977     00EB  3DBC               	addwfc	___fladd@b+2,f
  3978     00EC  0841               	movf	___fladd@a+3,w
  3979     00ED  3DBD               	addwfc	___fladd@b+3,f
  3980     00EE  1C3D               	btfss	___fladd@b+3,0
  3981     00EF  2981               	goto	l1657
  3982     00F0  1C4D               	btfss	___fladd@grs,0
  3983     00F1  28F6               	goto	l1613
  3984     00F2  364D               	lsrf	___fladd@grs,w
  3985     00F3  3801               	iorlw	1
  3986     00F4  00CD               	movwf	___fladd@grs
  3987     00F5  28F8               	goto	l1615
  3988     00F6                     l1613:
  3989     00F6  1003               	clrc
  3990     00F7  0CCD               	rrf	___fladd@grs,f
  3991     00F8                     l1615:
  3992     00F8  183A               	btfsc	___fladd@b,0
  3993     00F9  17CD               	bsf	___fladd@grs,7
  3994     00FA  3001               	movlw	1
  3995     00FB  00C2               	movwf	??___fladd
  3996     00FC                     u1625:
  3997     00FC  37BD               	asrf	___fladd@b+3,f
  3998     00FD  0CBC               	rrf	___fladd@b+2,f
  3999     00FE  0CBB               	rrf	___fladd@b+1,f
  4000     00FF  0CBA               	rrf	___fladd@b,f
  4001     0100  0BC2               	decfsz	??___fladd& (0+127),f
  4002     0101  28FC               	goto	u1625
  4003     0102  3001               	movlw	1
  4004     0103  00C2               	movwf	??___fladd
  4005     0104  0842               	movf	??___fladd,w
  4006     0105  07CC               	addwf	___fladd@bexp,f
  4007     0106  2981               	goto	l1657
  4008     0107                     l1623:
  4009     0107  083D               	movf	___fladd@b+3,w
  4010     0108  3A80               	xorlw	128
  4011     0109  00C2               	movwf	??___fladd
  4012     010A  0841               	movf	___fladd@a+3,w
  4013     010B  3A80               	xorlw	128
  4014     010C  0242               	subwf	??___fladd,w
  4015     010D  1D03               	skipz
  4016     010E  2919               	goto	u1633
  4017     010F  0840               	movf	___fladd@a+2,w
  4018     0110  023C               	subwf	___fladd@b+2,w
  4019     0111  1D03               	skipz
  4020     0112  2919               	goto	u1633
  4021     0113  083F               	movf	___fladd@a+1,w
  4022     0114  023B               	subwf	___fladd@b+1,w
  4023     0115  1D03               	skipz
  4024     0116  2919               	goto	u1633
  4025     0117  083E               	movf	___fladd@a,w
  4026     0118  023A               	subwf	___fladd@b,w
  4027     0119                     u1633:
  4028     0119  1803               	skipnc
  4029     011A  2951               	goto	l1633
  4030     011B  30FF               	movlw	255
  4031     011C  00C2               	movwf	??___fladd
  4032     011D  30FF               	movlw	255
  4033     011E  00C3               	movwf	??___fladd+1
  4034     011F  30FF               	movlw	255
  4035     0120  00C4               	movwf	??___fladd+2
  4036     0121  30FF               	movlw	255
  4037     0122  00C5               	movwf	??___fladd+3
  4038     0123  083A               	movf	___fladd@b,w
  4039     0124  023E               	subwf	___fladd@a,w
  4040     0125  00C6               	movwf	??___fladd+4
  4041     0126  083B               	movf	___fladd@b+1,w
  4042     0127  3B3F               	subwfb	___fladd@a+1,w
  4043     0128  00C7               	movwf	??___fladd+5
  4044     0129  083C               	movf	___fladd@b+2,w
  4045     012A  3B40               	subwfb	___fladd@a+2,w
  4046     012B  00C8               	movwf	??___fladd+6
  4047     012C  083D               	movf	___fladd@b+3,w
  4048     012D  3B41               	subwfb	___fladd@a+3,w
  4049     012E  00C9               	movwf	??___fladd+7
  4050     012F  0846               	movf	??___fladd+4,w
  4051     0130  07C2               	addwf	??___fladd,f
  4052     0131  0847               	movf	??___fladd+5,w
  4053     0132  3DC3               	addwfc	??___fladd+1,f
  4054     0133  0848               	movf	??___fladd+6,w
  4055     0134  3DC4               	addwfc	??___fladd+2,f
  4056     0135  0849               	movf	??___fladd+7,w
  4057     0136  3DC5               	addwfc	??___fladd+3,f
  4058     0137  0845               	movf	??___fladd+3,w
  4059     0138  00BD               	movwf	___fladd@b+3
  4060     0139  0844               	movf	??___fladd+2,w
  4061     013A  00BC               	movwf	___fladd@b+2
  4062     013B  0843               	movf	??___fladd+1,w
  4063     013C  00BB               	movwf	___fladd@b+1
  4064     013D  0842               	movf	??___fladd,w
  4065     013E  00BA               	movwf	___fladd@b
  4066     013F  3080               	movlw	128
  4067     0140  00C2               	movwf	??___fladd
  4068     0141  0842               	movf	??___fladd,w
  4069     0142  06CA               	xorwf	___fladd@signs,f
  4070     0143  09CD               	comf	___fladd@grs,f
  4071     0144  0ACD               	incf	___fladd@grs,f
  4072     0145  084D               	movf	___fladd@grs,w
  4073     0146  1D03               	btfss	3,2
  4074     0147  2959               	goto	l577
  4075     0148  3001               	movlw	1
  4076     0149  07BA               	addwf	___fladd@b,f
  4077     014A  3000               	movlw	0
  4078     014B  3DBB               	addwfc	___fladd@b+1,f
  4079     014C  3000               	movlw	0
  4080     014D  3DBC               	addwfc	___fladd@b+2,f
  4081     014E  3000               	movlw	0
  4082     014F  3DBD               	addwfc	___fladd@b+3,f
  4083     0150  2959               	goto	l577
  4084     0151                     l1633:
  4085     0151  083E               	movf	___fladd@a,w
  4086     0152  02BA               	subwf	___fladd@b,f
  4087     0153  083F               	movf	___fladd@a+1,w
  4088     0154  3BBB               	subwfb	___fladd@b+1,f
  4089     0155  0840               	movf	___fladd@a+2,w
  4090     0156  3BBC               	subwfb	___fladd@b+2,f
  4091     0157  0841               	movf	___fladd@a+3,w
  4092     0158  3BBD               	subwfb	___fladd@b+3,f
  4093     0159                     l577:
  4094     0159  083D               	movf	___fladd@b+3,w
  4095     015A  043C               	iorwf	___fladd@b+2,w
  4096     015B  043B               	iorwf	___fladd@b+1,w
  4097     015C  043A               	iorwf	___fladd@b,w
  4098     015D  1D03               	skipz
  4099     015E  297F               	goto	l1655
  4100     015F  084D               	movf	___fladd@grs,w
  4101     0160  1D03               	btfss	3,2
  4102     0161  297F               	goto	l1655
  4103     0162  3000               	movlw	0
  4104     0163  00BD               	movwf	?___fladd+3
  4105     0164  3000               	movlw	0
  4106     0165  00BC               	movwf	?___fladd+2
  4107     0166  3000               	movlw	0
  4108     0167  00BB               	movwf	?___fladd+1
  4109     0168  3000               	movlw	0
  4110     0169  00BA               	movwf	?___fladd
  4111     016A  0008               	return
  4112     016B                     l1641:
  4113     016B  3001               	movlw	1
  4114     016C                     u1675:
  4115     016C  35BA               	lslf	___fladd@b,f
  4116     016D  0DBB               	rlf	___fladd@b+1,f
  4117     016E  0DBC               	rlf	___fladd@b+2,f
  4118     016F  0DBD               	rlf	___fladd@b+3,f
  4119     0170  0B89               	decfsz	9,f
  4120     0171  296C               	goto	u1675
  4121     0172  1BCD               	btfsc	___fladd@grs,7
  4122     0173  143A               	bsf	___fladd@b,0
  4123     0174  1C4D               	btfss	___fladd@grs,0
  4124     0175  2978               	goto	l1649
  4125     0176  1403               	setc
  4126     0177  2979               	goto	L1
  4127     0178                     l1649:
  4128     0178  1003               	clrc
  4129     0179                     L1:
  4130     0179  0DCD               	rlf	___fladd@grs,f
  4131     017A  084C               	movf	___fladd@bexp,w
  4132     017B  1903               	btfsc	3,2
  4133     017C  297F               	goto	l1655
  4134     017D  3001               	movlw	1
  4135     017E  02CC               	subwf	___fladd@bexp,f
  4136     017F                     l1655:
  4137     017F  1FBC               	btfss	___fladd@b+2,7
  4138     0180  296B               	goto	l1641
  4139     0181                     l1657:
  4140     0181  01CB               	clrf	___fladd@aexp
  4141     0182  1FCD               	btfss	___fladd@grs,7
  4142     0183  298C               	goto	l1667
  4143     0184  084D               	movf	___fladd@grs,w
  4144     0185  397F               	andlw	127
  4145     0186  1903               	btfsc	3,2
  4146     0187  183A               	btfsc	___fladd@b,0
  4147     0188  298A               	goto	l1663
  4148     0189  298C               	goto	l1667
  4149     018A                     l1663:
  4150     018A  01CB               	clrf	___fladd@aexp
  4151     018B  0ACB               	incf	___fladd@aexp,f
  4152     018C                     l1667:
  4153     018C  084B               	movf	___fladd@aexp,w
  4154     018D  1903               	btfsc	3,2
  4155     018E  29B8               	goto	l590
  4156     018F  3001               	movlw	1
  4157     0190  07BA               	addwf	___fladd@b,f
  4158     0191  3000               	movlw	0
  4159     0192  3DBB               	addwfc	___fladd@b+1,f
  4160     0193  3000               	movlw	0
  4161     0194  3DBC               	addwfc	___fladd@b+2,f
  4162     0195  3000               	movlw	0
  4163     0196  3DBD               	addwfc	___fladd@b+3,f
  4164     0197  1C3D               	btfss	___fladd@b+3,0
  4165     0198  29B8               	goto	l590
  4166     0199  083A               	movf	___fladd@b,w
  4167     019A  00C2               	movwf	??___fladd
  4168     019B  083B               	movf	___fladd@b+1,w
  4169     019C  00C3               	movwf	??___fladd+1
  4170     019D  083C               	movf	___fladd@b+2,w
  4171     019E  00C4               	movwf	??___fladd+2
  4172     019F  083D               	movf	___fladd@b+3,w
  4173     01A0  00C5               	movwf	??___fladd+3
  4174     01A1  3001               	movlw	1
  4175     01A2  00C6               	movwf	??___fladd+4
  4176     01A3                     u1775:
  4177     01A3  37C5               	asrf	??___fladd+3,f
  4178     01A4  0CC4               	rrf	??___fladd+2,f
  4179     01A5  0CC3               	rrf	??___fladd+1,f
  4180     01A6  0CC2               	rrf	??___fladd,f
  4181     01A7  0BC6               	decfsz	??___fladd+4,f
  4182     01A8  29A3               	goto	u1775
  4183     01A9  0845               	movf	??___fladd+3,w
  4184     01AA  00BD               	movwf	___fladd@b+3
  4185     01AB  0844               	movf	??___fladd+2,w
  4186     01AC  00BC               	movwf	___fladd@b+2
  4187     01AD  0843               	movf	??___fladd+1,w
  4188     01AE  00BB               	movwf	___fladd@b+1
  4189     01AF  0842               	movf	??___fladd,w
  4190     01B0  00BA               	movwf	___fladd@b
  4191     01B1  0A4C               	incf	___fladd@bexp,w
  4192     01B2  1903               	btfsc	3,2
  4193     01B3  29B8               	goto	l590
  4194     01B4  3001               	movlw	1
  4195     01B5  00C2               	movwf	??___fladd
  4196     01B6  0842               	movf	??___fladd,w
  4197     01B7  07CC               	addwf	___fladd@bexp,f
  4198     01B8                     l590:
  4199     01B8  0A4C               	incf	___fladd@bexp,w
  4200     01B9  1D03               	btfss	3,2
  4201     01BA  084C               	movf	___fladd@bexp,w
  4202     01BB  1D03               	btfss	3,2
  4203     01BC  29C8               	goto	l1685
  4204     01BD  3000               	movlw	0
  4205     01BE  00BD               	movwf	___fladd@b+3
  4206     01BF  3000               	movlw	0
  4207     01C0  00BC               	movwf	___fladd@b+2
  4208     01C1  3000               	movlw	0
  4209     01C2  00BB               	movwf	___fladd@b+1
  4210     01C3  3000               	movlw	0
  4211     01C4  00BA               	movwf	___fladd@b
  4212     01C5  084C               	movf	___fladd@bexp,w
  4213     01C6  1903               	btfsc	3,2
  4214     01C7  01CA               	clrf	___fladd@signs
  4215     01C8                     l1685:
  4216     01C8  1C4C               	btfss	___fladd@bexp,0
  4217     01C9  29CC               	goto	l1689
  4218     01CA  17BC               	bsf	___fladd@b+2,7
  4219     01CB  29D0               	goto	l598
  4220     01CC                     l1689:
  4221     01CC  307F               	movlw	127
  4222     01CD  00C2               	movwf	??___fladd
  4223     01CE  0842               	movf	??___fladd,w
  4224     01CF  05BC               	andwf	___fladd@b+2,f
  4225     01D0                     l598:
  4226     01D0  364C               	lsrf	___fladd@bexp,w
  4227     01D1  00BD               	movwf	___fladd@b+3
  4228     01D2  1FCA               	btfss	___fladd@signs,7
  4229     01D3  0008               	return
  4230     01D4  17BD               	bsf	___fladd@b+3,7
  4231     01D5  0008               	return
  4232     01D6                     __end_of___fladd:
  4233                           
  4234                           	psect	text8
  4235     0DF0                     __ptext8:	
  4236 ;; *************** function ___flmul *****************
  4237 ;; Defined at:
  4238 ;;		line 8 in file "/Applications/microchip/xc8/v2.45/pic/sources/c99/common/sprcmul.c"
  4239 ;; Parameters:    Size  Location     Type
  4240 ;;  b               4    0[BANK0 ] unsigned char 
  4241 ;;  a               4    4[BANK0 ] unsigned char 
  4242 ;; Auto vars:     Size  Location     Type
  4243 ;;  prod            4   20[BANK0 ] struct .
  4244 ;;  grs             4   14[BANK0 ] unsigned long 
  4245 ;;  temp            2   24[BANK0 ] struct .
  4246 ;;  bexp            1   19[BANK0 ] unsigned char 
  4247 ;;  aexp            1   18[BANK0 ] unsigned char 
  4248 ;;  sign            1   13[BANK0 ] unsigned char 
  4249 ;; Return value:  Size  Location     Type
  4250 ;;                  4    0[BANK0 ] unsigned char 
  4251 ;; Registers used:
  4252 ;;		wreg, status,2, status,0, pclath, cstack
  4253 ;; Tracked objects:
  4254 ;;		On entry : 0/0
  4255 ;;		On exit  : 0/0
  4256 ;;		Unchanged: 0/0
  4257 ;; Data sizes:     COMMON   BANK0   BANK1   BANK2
  4258 ;;      Params:         0       8       0       0
  4259 ;;      Locals:         0      13       0       0
  4260 ;;      Temps:          0       5       0       0
  4261 ;;      Totals:         0      26       0       0
  4262 ;;Total ram usage:       26 bytes
  4263 ;; Hardware stack levels used: 1
  4264 ;; Hardware stack levels required when called: 1
  4265 ;; This function calls:
  4266 ;;		__Umul8_16
  4267 ;; This function is called by:
  4268 ;;		_CONVERT_SPEED_TO_LOG
  4269 ;;		_log10f
  4270 ;; This function uses a non-reentrant model
  4271 ;;
  4272                           
  4273     0DF0                     ___flmul:	
  4274                           ;psect for function ___flmul
  4275                           
  4276                           
  4277                           ;incstack = 0
  4278                           ; Regs used in ___flmul: [wreg+status,2+status,0+pclath+cstack]
  4279     0DF0  0020               	movlb	0	; select bank0
  4280     0DF1  0823               	movf	___flmul@b+3,w
  4281     0DF2  3980               	andlw	128
  4282     0DF3  00AD               	movwf	___flmul@sign
  4283     0DF4  3523               	lslf	___flmul@b+3,w
  4284     0DF5  00B3               	movwf	___flmul@bexp
  4285     0DF6  1BA2               	btfsc	___flmul@b+2,7
  4286     0DF7  1433               	bsf	___flmul@bexp,0
  4287     0DF8  0833               	movf	___flmul@bexp,w
  4288     0DF9  1903               	btfsc	3,2
  4289     0DFA  2E08               	goto	l1871
  4290     0DFB  0A33               	incf	___flmul@bexp,w
  4291     0DFC  1D03               	btfss	3,2
  4292     0DFD  2E06               	goto	l1869
  4293     0DFE  3000               	movlw	0
  4294     0DFF  00A3               	movwf	___flmul@b+3
  4295     0E00  3000               	movlw	0
  4296     0E01  00A2               	movwf	___flmul@b+2
  4297     0E02  3000               	movlw	0
  4298     0E03  00A1               	movwf	___flmul@b+1
  4299     0E04  3000               	movlw	0
  4300     0E05  00A0               	movwf	___flmul@b
  4301     0E06                     l1869:
  4302     0E06  17A2               	bsf	___flmul@b+2,7
  4303     0E07  2E10               	goto	l1873
  4304     0E08                     l1871:
  4305     0E08  3000               	movlw	0
  4306     0E09  00A3               	movwf	___flmul@b+3
  4307     0E0A  3000               	movlw	0
  4308     0E0B  00A2               	movwf	___flmul@b+2
  4309     0E0C  3000               	movlw	0
  4310     0E0D  00A1               	movwf	___flmul@b+1
  4311     0E0E  3000               	movlw	0
  4312     0E0F  00A0               	movwf	___flmul@b
  4313     0E10                     l1873:
  4314     0E10  0827               	movf	___flmul@a+3,w
  4315     0E11  3980               	andlw	128
  4316     0E12  00A8               	movwf	??___flmul
  4317     0E13  0828               	movf	??___flmul,w
  4318     0E14  06AD               	xorwf	___flmul@sign,f
  4319     0E15  3527               	lslf	___flmul@a+3,w
  4320     0E16  00B2               	movwf	___flmul@aexp
  4321     0E17  1BA6               	btfsc	___flmul@a+2,7
  4322     0E18  1432               	bsf	___flmul@aexp,0
  4323     0E19  0832               	movf	___flmul@aexp,w
  4324     0E1A  1903               	btfsc	3,2
  4325     0E1B  2E29               	goto	l1889
  4326     0E1C  0A32               	incf	___flmul@aexp,w
  4327     0E1D  1D03               	btfss	3,2
  4328     0E1E  2E27               	goto	l1887
  4329     0E1F  3000               	movlw	0
  4330     0E20  00A7               	movwf	___flmul@a+3
  4331     0E21  3000               	movlw	0
  4332     0E22  00A6               	movwf	___flmul@a+2
  4333     0E23  3000               	movlw	0
  4334     0E24  00A5               	movwf	___flmul@a+1
  4335     0E25  3000               	movlw	0
  4336     0E26  00A4               	movwf	___flmul@a
  4337     0E27                     l1887:
  4338     0E27  17A6               	bsf	___flmul@a+2,7
  4339     0E28  2E31               	goto	l1891
  4340     0E29                     l1889:
  4341     0E29  3000               	movlw	0
  4342     0E2A  00A7               	movwf	___flmul@a+3
  4343     0E2B  3000               	movlw	0
  4344     0E2C  00A6               	movwf	___flmul@a+2
  4345     0E2D  3000               	movlw	0
  4346     0E2E  00A5               	movwf	___flmul@a+1
  4347     0E2F  3000               	movlw	0
  4348     0E30  00A4               	movwf	___flmul@a
  4349     0E31                     l1891:
  4350     0E31  0832               	movf	___flmul@aexp,w
  4351     0E32  1D03               	btfss	3,2
  4352     0E33  0833               	movf	___flmul@bexp,w
  4353     0E34  1D03               	btfss	3,2
  4354     0E35  2E3F               	goto	l1899
  4355     0E36  3000               	movlw	0
  4356     0E37  00A3               	movwf	?___flmul+3
  4357     0E38  3000               	movlw	0
  4358     0E39  00A2               	movwf	?___flmul+2
  4359     0E3A  3000               	movlw	0
  4360     0E3B  00A1               	movwf	?___flmul+1
  4361     0E3C  3000               	movlw	0
  4362     0E3D  00A0               	movwf	?___flmul
  4363     0E3E  0008               	return
  4364     0E3F                     l1899:
  4365     0E3F  0820               	movf	___flmul@b,w
  4366     0E40  00F0               	movwf	__Umul8_16@multiplicand
  4367     0E41  0826               	movf	___flmul@a+2,w
  4368     0E42  318A  2287  318D   	fcall	__Umul8_16
  4369     0E45  0871               	movf	?__Umul8_16+1,w
  4370     0E46  0020               	movlb	0	; select bank0
  4371     0E47  00B9               	movwf	___flmul@temp+1
  4372     0E48  0870               	movf	?__Umul8_16,w
  4373     0E49  00B8               	movwf	___flmul@temp
  4374     0E4A  0838               	movf	___flmul@temp,w
  4375     0E4B  00A8               	movwf	??___flmul
  4376     0E4C  01A9               	clrf	??___flmul+1
  4377     0E4D  01AA               	clrf	??___flmul+2
  4378     0E4E  01AB               	clrf	??___flmul+3
  4379     0E4F  082B               	movf	??___flmul+3,w
  4380     0E50  00B1               	movwf	___flmul@grs+3
  4381     0E51  082A               	movf	??___flmul+2,w
  4382     0E52  00B0               	movwf	___flmul@grs+2
  4383     0E53  0829               	movf	??___flmul+1,w
  4384     0E54  00AF               	movwf	___flmul@grs+1
  4385     0E55  0828               	movf	??___flmul,w
  4386     0E56  00AE               	movwf	___flmul@grs
  4387     0E57  0839               	movf	___flmul@temp+1,w
  4388     0E58  00A8               	movwf	??___flmul
  4389     0E59  01A9               	clrf	??___flmul+1
  4390     0E5A  01AA               	clrf	??___flmul+2
  4391     0E5B  01AB               	clrf	??___flmul+3
  4392     0E5C  082B               	movf	??___flmul+3,w
  4393     0E5D  00B7               	movwf	___flmul@prod+3
  4394     0E5E  082A               	movf	??___flmul+2,w
  4395     0E5F  00B6               	movwf	___flmul@prod+2
  4396     0E60  0829               	movf	??___flmul+1,w
  4397     0E61  00B5               	movwf	___flmul@prod+1
  4398     0E62  0828               	movf	??___flmul,w
  4399     0E63  00B4               	movwf	___flmul@prod
  4400     0E64  0821               	movf	___flmul@b+1,w
  4401     0E65  00F0               	movwf	__Umul8_16@multiplicand
  4402     0E66  0825               	movf	___flmul@a+1,w
  4403     0E67  318A  2287  318D   	fcall	__Umul8_16
  4404     0E6A  0871               	movf	?__Umul8_16+1,w
  4405     0E6B  0020               	movlb	0	; select bank0
  4406     0E6C  00B9               	movwf	___flmul@temp+1
  4407     0E6D  0870               	movf	?__Umul8_16,w
  4408     0E6E  00B8               	movwf	___flmul@temp
  4409     0E6F  0838               	movf	___flmul@temp,w
  4410     0E70  00A8               	movwf	??___flmul
  4411     0E71  01A9               	clrf	??___flmul+1
  4412     0E72  01AA               	clrf	??___flmul+2
  4413     0E73  01AB               	clrf	??___flmul+3
  4414     0E74  0828               	movf	??___flmul,w
  4415     0E75  07AE               	addwf	___flmul@grs,f
  4416     0E76  0829               	movf	??___flmul+1,w
  4417     0E77  3DAF               	addwfc	___flmul@grs+1,f
  4418     0E78  082A               	movf	??___flmul+2,w
  4419     0E79  3DB0               	addwfc	___flmul@grs+2,f
  4420     0E7A  082B               	movf	??___flmul+3,w
  4421     0E7B  3DB1               	addwfc	___flmul@grs+3,f
  4422     0E7C  0839               	movf	___flmul@temp+1,w
  4423     0E7D  00A8               	movwf	??___flmul
  4424     0E7E  01A9               	clrf	??___flmul+1
  4425     0E7F  01AA               	clrf	??___flmul+2
  4426     0E80  01AB               	clrf	??___flmul+3
  4427     0E81  0828               	movf	??___flmul,w
  4428     0E82  07B4               	addwf	___flmul@prod,f
  4429     0E83  0829               	movf	??___flmul+1,w
  4430     0E84  3DB5               	addwfc	___flmul@prod+1,f
  4431     0E85  082A               	movf	??___flmul+2,w
  4432     0E86  3DB6               	addwfc	___flmul@prod+2,f
  4433     0E87  082B               	movf	??___flmul+3,w
  4434     0E88  3DB7               	addwfc	___flmul@prod+3,f
  4435     0E89  0822               	movf	___flmul@b+2,w
  4436     0E8A  00F0               	movwf	__Umul8_16@multiplicand
  4437     0E8B  0824               	movf	___flmul@a,w
  4438     0E8C  318A  2287  318D   	fcall	__Umul8_16
  4439     0E8F  0871               	movf	?__Umul8_16+1,w
  4440     0E90  0020               	movlb	0	; select bank0
  4441     0E91  00B9               	movwf	___flmul@temp+1
  4442     0E92  0870               	movf	?__Umul8_16,w
  4443     0E93  00B8               	movwf	___flmul@temp
  4444     0E94  0838               	movf	___flmul@temp,w
  4445     0E95  00A8               	movwf	??___flmul
  4446     0E96  01A9               	clrf	??___flmul+1
  4447     0E97  01AA               	clrf	??___flmul+2
  4448     0E98  01AB               	clrf	??___flmul+3
  4449     0E99  0828               	movf	??___flmul,w
  4450     0E9A  07AE               	addwf	___flmul@grs,f
  4451     0E9B  0829               	movf	??___flmul+1,w
  4452     0E9C  3DAF               	addwfc	___flmul@grs+1,f
  4453     0E9D  082A               	movf	??___flmul+2,w
  4454     0E9E  3DB0               	addwfc	___flmul@grs+2,f
  4455     0E9F  082B               	movf	??___flmul+3,w
  4456     0EA0  3DB1               	addwfc	___flmul@grs+3,f
  4457     0EA1  0839               	movf	___flmul@temp+1,w
  4458     0EA2  00A8               	movwf	??___flmul
  4459     0EA3  01A9               	clrf	??___flmul+1
  4460     0EA4  01AA               	clrf	??___flmul+2
  4461     0EA5  01AB               	clrf	??___flmul+3
  4462     0EA6  0828               	movf	??___flmul,w
  4463     0EA7  07B4               	addwf	___flmul@prod,f
  4464     0EA8  0829               	movf	??___flmul+1,w
  4465     0EA9  3DB5               	addwfc	___flmul@prod+1,f
  4466     0EAA  082A               	movf	??___flmul+2,w
  4467     0EAB  3DB6               	addwfc	___flmul@prod+2,f
  4468     0EAC  082B               	movf	??___flmul+3,w
  4469     0EAD  3DB7               	addwfc	___flmul@prod+3,f
  4470     0EAE  3008               	movlw	8
  4471     0EAF                     u2245:
  4472     0EAF  35AE               	lslf	___flmul@grs,f
  4473     0EB0  0DAF               	rlf	___flmul@grs+1,f
  4474     0EB1  0DB0               	rlf	___flmul@grs+2,f
  4475     0EB2  0DB1               	rlf	___flmul@grs+3,f
  4476     0EB3  0B89               	decfsz	9,f
  4477     0EB4  2EAF               	goto	u2245
  4478     0EB5  0821               	movf	___flmul@b+1,w
  4479     0EB6  00F0               	movwf	__Umul8_16@multiplicand
  4480     0EB7  0824               	movf	___flmul@a,w
  4481     0EB8  318A  2287  318D   	fcall	__Umul8_16
  4482     0EBB  0871               	movf	?__Umul8_16+1,w
  4483     0EBC  0020               	movlb	0	; select bank0
  4484     0EBD  00B9               	movwf	___flmul@temp+1
  4485     0EBE  0870               	movf	?__Umul8_16,w
  4486     0EBF  00B8               	movwf	___flmul@temp
  4487     0EC0  0838               	movf	___flmul@temp,w
  4488     0EC1  07AE               	addwf	___flmul@grs,f
  4489     0EC2  0839               	movf	___flmul@temp+1,w
  4490     0EC3  3DAF               	addwfc	___flmul@grs+1,f
  4491     0EC4  3000               	movlw	0
  4492     0EC5  3DB0               	addwfc	___flmul@grs+2,f
  4493     0EC6  3DB1               	addwfc	___flmul@grs+3,f
  4494     0EC7  0820               	movf	___flmul@b,w
  4495     0EC8  00F0               	movwf	__Umul8_16@multiplicand
  4496     0EC9  0825               	movf	___flmul@a+1,w
  4497     0ECA  318A  2287  318D   	fcall	__Umul8_16
  4498     0ECD  0871               	movf	?__Umul8_16+1,w
  4499     0ECE  0020               	movlb	0	; select bank0
  4500     0ECF  00B9               	movwf	___flmul@temp+1
  4501     0ED0  0870               	movf	?__Umul8_16,w
  4502     0ED1  00B8               	movwf	___flmul@temp
  4503     0ED2  0838               	movf	___flmul@temp,w
  4504     0ED3  07AE               	addwf	___flmul@grs,f
  4505     0ED4  0839               	movf	___flmul@temp+1,w
  4506     0ED5  3DAF               	addwfc	___flmul@grs+1,f
  4507     0ED6  3000               	movlw	0
  4508     0ED7  3DB0               	addwfc	___flmul@grs+2,f
  4509     0ED8  3DB1               	addwfc	___flmul@grs+3,f
  4510     0ED9  3008               	movlw	8
  4511     0EDA                     u2255:
  4512     0EDA  35AE               	lslf	___flmul@grs,f
  4513     0EDB  0DAF               	rlf	___flmul@grs+1,f
  4514     0EDC  0DB0               	rlf	___flmul@grs+2,f
  4515     0EDD  0DB1               	rlf	___flmul@grs+3,f
  4516     0EDE  0B89               	decfsz	9,f
  4517     0EDF  2EDA               	goto	u2255
  4518     0EE0  0820               	movf	___flmul@b,w
  4519     0EE1  00F0               	movwf	__Umul8_16@multiplicand
  4520     0EE2  0824               	movf	___flmul@a,w
  4521     0EE3  318A  2287  318D   	fcall	__Umul8_16
  4522     0EE6  0871               	movf	?__Umul8_16+1,w
  4523     0EE7  0020               	movlb	0	; select bank0
  4524     0EE8  00B9               	movwf	___flmul@temp+1
  4525     0EE9  0870               	movf	?__Umul8_16,w
  4526     0EEA  00B8               	movwf	___flmul@temp
  4527     0EEB  0838               	movf	___flmul@temp,w
  4528     0EEC  07AE               	addwf	___flmul@grs,f
  4529     0EED  0839               	movf	___flmul@temp+1,w
  4530     0EEE  3DAF               	addwfc	___flmul@grs+1,f
  4531     0EEF  3000               	movlw	0
  4532     0EF0  3DB0               	addwfc	___flmul@grs+2,f
  4533     0EF1  3DB1               	addwfc	___flmul@grs+3,f
  4534     0EF2  0821               	movf	___flmul@b+1,w
  4535     0EF3  00F0               	movwf	__Umul8_16@multiplicand
  4536     0EF4  0826               	movf	___flmul@a+2,w
  4537     0EF5  318A  2287  318D   	fcall	__Umul8_16
  4538     0EF8  0871               	movf	?__Umul8_16+1,w
  4539     0EF9  0020               	movlb	0	; select bank0
  4540     0EFA  00B9               	movwf	___flmul@temp+1
  4541     0EFB  0870               	movf	?__Umul8_16,w
  4542     0EFC  00B8               	movwf	___flmul@temp
  4543     0EFD  0838               	movf	___flmul@temp,w
  4544     0EFE  07B4               	addwf	___flmul@prod,f
  4545     0EFF  0839               	movf	___flmul@temp+1,w
  4546     0F00  3DB5               	addwfc	___flmul@prod+1,f
  4547     0F01  3000               	movlw	0
  4548     0F02  3DB6               	addwfc	___flmul@prod+2,f
  4549     0F03  3DB7               	addwfc	___flmul@prod+3,f
  4550     0F04  0822               	movf	___flmul@b+2,w
  4551     0F05  00F0               	movwf	__Umul8_16@multiplicand
  4552     0F06  0825               	movf	___flmul@a+1,w
  4553     0F07  318A  2287  318D   	fcall	__Umul8_16
  4554     0F0A  0871               	movf	?__Umul8_16+1,w
  4555     0F0B  0020               	movlb	0	; select bank0
  4556     0F0C  00B9               	movwf	___flmul@temp+1
  4557     0F0D  0870               	movf	?__Umul8_16,w
  4558     0F0E  00B8               	movwf	___flmul@temp
  4559     0F0F  0838               	movf	___flmul@temp,w
  4560     0F10  07B4               	addwf	___flmul@prod,f
  4561     0F11  0839               	movf	___flmul@temp+1,w
  4562     0F12  3DB5               	addwfc	___flmul@prod+1,f
  4563     0F13  3000               	movlw	0
  4564     0F14  3DB6               	addwfc	___flmul@prod+2,f
  4565     0F15  3DB7               	addwfc	___flmul@prod+3,f
  4566     0F16  0822               	movf	___flmul@b+2,w
  4567     0F17  00F0               	movwf	__Umul8_16@multiplicand
  4568     0F18  0826               	movf	___flmul@a+2,w
  4569     0F19  318A  2287  318D   	fcall	__Umul8_16
  4570     0F1C  0871               	movf	?__Umul8_16+1,w
  4571     0F1D  0020               	movlb	0	; select bank0
  4572     0F1E  00B9               	movwf	___flmul@temp+1
  4573     0F1F  0870               	movf	?__Umul8_16,w
  4574     0F20  00B8               	movwf	___flmul@temp
  4575     0F21  0838               	movf	___flmul@temp,w
  4576     0F22  00A8               	movwf	??___flmul
  4577     0F23  0839               	movf	___flmul@temp+1,w
  4578     0F24  00A9               	movwf	??___flmul+1
  4579     0F25  01AA               	clrf	??___flmul+2
  4580     0F26  01AB               	clrf	??___flmul+3
  4581     0F27  3008               	movlw	8
  4582     0F28                     u2265:
  4583     0F28  35A8               	lslf	??___flmul,f
  4584     0F29  0DA9               	rlf	??___flmul+1,f
  4585     0F2A  0DAA               	rlf	??___flmul+2,f
  4586     0F2B  0DAB               	rlf	??___flmul+3,f
  4587     0F2C  0B89               	decfsz	9,f
  4588     0F2D  2F28               	goto	u2265
  4589     0F2E  0828               	movf	??___flmul,w
  4590     0F2F  07B4               	addwf	___flmul@prod,f
  4591     0F30  0829               	movf	??___flmul+1,w
  4592     0F31  3DB5               	addwfc	___flmul@prod+1,f
  4593     0F32  082A               	movf	??___flmul+2,w
  4594     0F33  3DB6               	addwfc	___flmul@prod+2,f
  4595     0F34  082B               	movf	??___flmul+3,w
  4596     0F35  3DB7               	addwfc	___flmul@prod+3,f
  4597     0F36  082E               	movf	___flmul@grs,w
  4598     0F37  00A8               	movwf	??___flmul
  4599     0F38  082F               	movf	___flmul@grs+1,w
  4600     0F39  00A9               	movwf	??___flmul+1
  4601     0F3A  0830               	movf	___flmul@grs+2,w
  4602     0F3B  00AA               	movwf	??___flmul+2
  4603     0F3C  0831               	movf	___flmul@grs+3,w
  4604     0F3D  00AB               	movwf	??___flmul+3
  4605     0F3E  3018               	movlw	24
  4606     0F3F                     u2275:
  4607     0F3F  36AB               	lsrf	??___flmul+3,f
  4608     0F40  0CAA               	rrf	??___flmul+2,f
  4609     0F41  0CA9               	rrf	??___flmul+1,f
  4610     0F42  0CA8               	rrf	??___flmul,f
  4611     0F43  0B89               	decfsz	9,f
  4612     0F44  2F3F               	goto	u2275
  4613     0F45  0828               	movf	??___flmul,w
  4614     0F46  07B4               	addwf	___flmul@prod,f
  4615     0F47  0829               	movf	??___flmul+1,w
  4616     0F48  3DB5               	addwfc	___flmul@prod+1,f
  4617     0F49  082A               	movf	??___flmul+2,w
  4618     0F4A  3DB6               	addwfc	___flmul@prod+2,f
  4619     0F4B  082B               	movf	??___flmul+3,w
  4620     0F4C  3DB7               	addwfc	___flmul@prod+3,f
  4621     0F4D  3008               	movlw	8
  4622     0F4E                     u2285:
  4623     0F4E  35AE               	lslf	___flmul@grs,f
  4624     0F4F  0DAF               	rlf	___flmul@grs+1,f
  4625     0F50  0DB0               	rlf	___flmul@grs+2,f
  4626     0F51  0DB1               	rlf	___flmul@grs+3,f
  4627     0F52  0B89               	decfsz	9,f
  4628     0F53  2F4E               	goto	u2285
  4629     0F54  0833               	movf	___flmul@bexp,w
  4630     0F55  0732               	addwf	___flmul@aexp,w
  4631     0F56  00A8               	movwf	??___flmul
  4632     0F57  01A9               	clrf	??___flmul+1
  4633     0F58  0DA9               	rlf	??___flmul+1,f
  4634     0F59  0828               	movf	??___flmul,w
  4635     0F5A  3E82               	addlw	130
  4636     0F5B  00B8               	movwf	___flmul@temp
  4637     0F5C  30FF               	movlw	255
  4638     0F5D  3D29               	addwfc	??___flmul+1,w
  4639     0F5E  00B9               	movwf	___flmul@temp+1
  4640     0F5F                     l1951:
  4641     0F5F  1BB6               	btfsc	___flmul@prod+2,7
  4642     0F60  2F76               	goto	l1953
  4643     0F61  3001               	movlw	1
  4644     0F62                     u2295:
  4645     0F62  35B4               	lslf	___flmul@prod,f
  4646     0F63  0DB5               	rlf	___flmul@prod+1,f
  4647     0F64  0DB6               	rlf	___flmul@prod+2,f
  4648     0F65  0DB7               	rlf	___flmul@prod+3,f
  4649     0F66  0B89               	decfsz	9,f
  4650     0F67  2F62               	goto	u2295
  4651     0F68  1BB1               	btfsc	___flmul@grs+3,7
  4652     0F69  1434               	bsf	___flmul@prod,0
  4653     0F6A  3001               	movlw	1
  4654     0F6B                     u2315:
  4655     0F6B  35AE               	lslf	___flmul@grs,f
  4656     0F6C  0DAF               	rlf	___flmul@grs+1,f
  4657     0F6D  0DB0               	rlf	___flmul@grs+2,f
  4658     0F6E  0DB1               	rlf	___flmul@grs+3,f
  4659     0F6F  0B89               	decfsz	9,f
  4660     0F70  2F6B               	goto	u2315
  4661     0F71  30FF               	movlw	255
  4662     0F72  07B8               	addwf	___flmul@temp,f
  4663     0F73  30FF               	movlw	255
  4664     0F74  3DB9               	addwfc	___flmul@temp+1,f
  4665     0F75  2F5F               	goto	l1951
  4666     0F76                     l1953:
  4667     0F76  01B2               	clrf	___flmul@aexp
  4668     0F77  1FB1               	btfss	___flmul@grs+3,7
  4669     0F78  2F8F               	goto	l1963
  4670     0F79  30FF               	movlw	255
  4671     0F7A  052E               	andwf	___flmul@grs,w
  4672     0F7B  00A8               	movwf	??___flmul
  4673     0F7C  30FF               	movlw	255
  4674     0F7D  052F               	andwf	___flmul@grs+1,w
  4675     0F7E  00A9               	movwf	??___flmul+1
  4676     0F7F  30FF               	movlw	255
  4677     0F80  0530               	andwf	___flmul@grs+2,w
  4678     0F81  00AA               	movwf	??___flmul+2
  4679     0F82  307F               	movlw	127
  4680     0F83  0531               	andwf	___flmul@grs+3,w
  4681     0F84  00AB               	movwf	??___flmul+3
  4682     0F85  082B               	movf	??___flmul+3,w
  4683     0F86  042A               	iorwf	??___flmul+2,w
  4684     0F87  0429               	iorwf	??___flmul+1,w
  4685     0F88  0428               	iorwf	??___flmul,w
  4686     0F89  1903               	skipnz
  4687     0F8A  1834               	btfsc	___flmul@prod,0
  4688     0F8B  2F8D               	goto	l1959
  4689     0F8C  2F8F               	goto	l1963
  4690     0F8D                     l1959:
  4691     0F8D  01B2               	clrf	___flmul@aexp
  4692     0F8E  0AB2               	incf	___flmul@aexp,f
  4693     0F8F                     l1963:
  4694     0F8F  0832               	movf	___flmul@aexp,w
  4695     0F90  1903               	btfsc	3,2
  4696     0F91  2FB8               	goto	l1973
  4697     0F92  3001               	movlw	1
  4698     0F93  07B4               	addwf	___flmul@prod,f
  4699     0F94  3000               	movlw	0
  4700     0F95  3DB5               	addwfc	___flmul@prod+1,f
  4701     0F96  3000               	movlw	0
  4702     0F97  3DB6               	addwfc	___flmul@prod+2,f
  4703     0F98  3000               	movlw	0
  4704     0F99  3DB7               	addwfc	___flmul@prod+3,f
  4705     0F9A  1C37               	btfss	___flmul@prod+3,0
  4706     0F9B  2FB8               	goto	l1973
  4707     0F9C  0834               	movf	___flmul@prod,w
  4708     0F9D  00A8               	movwf	??___flmul
  4709     0F9E  0835               	movf	___flmul@prod+1,w
  4710     0F9F  00A9               	movwf	??___flmul+1
  4711     0FA0  0836               	movf	___flmul@prod+2,w
  4712     0FA1  00AA               	movwf	??___flmul+2
  4713     0FA2  0837               	movf	___flmul@prod+3,w
  4714     0FA3  00AB               	movwf	??___flmul+3
  4715     0FA4  3001               	movlw	1
  4716     0FA5  00AC               	movwf	??___flmul+4
  4717     0FA6                     u2385:
  4718     0FA6  37AB               	asrf	??___flmul+3,f
  4719     0FA7  0CAA               	rrf	??___flmul+2,f
  4720     0FA8  0CA9               	rrf	??___flmul+1,f
  4721     0FA9  0CA8               	rrf	??___flmul,f
  4722     0FAA  0BAC               	decfsz	??___flmul+4,f
  4723     0FAB  2FA6               	goto	u2385
  4724     0FAC  082B               	movf	??___flmul+3,w
  4725     0FAD  00B7               	movwf	___flmul@prod+3
  4726     0FAE  082A               	movf	??___flmul+2,w
  4727     0FAF  00B6               	movwf	___flmul@prod+2
  4728     0FB0  0829               	movf	??___flmul+1,w
  4729     0FB1  00B5               	movwf	___flmul@prod+1
  4730     0FB2  0828               	movf	??___flmul,w
  4731     0FB3  00B4               	movwf	___flmul@prod
  4732     0FB4  3001               	movlw	1
  4733     0FB5  07B8               	addwf	___flmul@temp,f
  4734     0FB6  3000               	movlw	0
  4735     0FB7  3DB9               	addwfc	___flmul@temp+1,f
  4736     0FB8                     l1973:
  4737     0FB8  0839               	movf	___flmul@temp+1,w
  4738     0FB9  3A80               	xorlw	128
  4739     0FBA  00A8               	movwf	??___flmul
  4740     0FBB  3080               	movlw	128
  4741     0FBC  0228               	subwf	??___flmul,w
  4742     0FBD  1D03               	skipz
  4743     0FBE  2FC1               	goto	u2395
  4744     0FBF  30FF               	movlw	255
  4745     0FC0  0238               	subwf	___flmul@temp,w
  4746     0FC1                     u2395:
  4747     0FC1  1C03               	skipc
  4748     0FC2  2FCD               	goto	l1977
  4749     0FC3  307F               	movlw	127
  4750     0FC4  0020               	movlb	0	; select bank0
  4751     0FC5  00B7               	movwf	___flmul@prod+3
  4752     0FC6  3080               	movlw	128
  4753     0FC7  00B6               	movwf	___flmul@prod+2
  4754     0FC8  3000               	movlw	0
  4755     0FC9  00B5               	movwf	___flmul@prod+1
  4756     0FCA  3000               	movlw	0
  4757     0FCB  00B4               	movwf	___flmul@prod
  4758     0FCC  2FF3               	goto	l664
  4759     0FCD                     l1977:
  4760     0FCD  0020               	movlb	0	; select bank0
  4761     0FCE  0839               	movf	___flmul@temp+1,w
  4762     0FCF  3A80               	xorlw	128
  4763     0FD0  00A8               	movwf	??___flmul
  4764     0FD1  3080               	movlw	128
  4765     0FD2  0228               	subwf	??___flmul,w
  4766     0FD3  1D03               	skipz
  4767     0FD4  2FD7               	goto	u2405
  4768     0FD5  3001               	movlw	1
  4769     0FD6  0238               	subwf	___flmul@temp,w
  4770     0FD7                     u2405:
  4771     0FD7  1803               	skipnc
  4772     0FD8  2FE4               	goto	l1983
  4773     0FD9  3000               	movlw	0
  4774     0FDA  0020               	movlb	0	; select bank0
  4775     0FDB  00B7               	movwf	___flmul@prod+3
  4776     0FDC  3000               	movlw	0
  4777     0FDD  00B6               	movwf	___flmul@prod+2
  4778     0FDE  3000               	movlw	0
  4779     0FDF  00B5               	movwf	___flmul@prod+1
  4780     0FE0  3000               	movlw	0
  4781     0FE1  00B4               	movwf	___flmul@prod
  4782     0FE2  01AD               	clrf	___flmul@sign
  4783     0FE3  2FF3               	goto	l664
  4784     0FE4                     l1983:
  4785     0FE4  0020               	movlb	0	; select bank0
  4786     0FE5  0838               	movf	___flmul@temp,w
  4787     0FE6  00B3               	movwf	___flmul@bexp
  4788     0FE7  30FF               	movlw	255
  4789     0FE8  05B4               	andwf	___flmul@prod,f
  4790     0FE9  30FF               	movlw	255
  4791     0FEA  05B5               	andwf	___flmul@prod+1,f
  4792     0FEB  307F               	movlw	127
  4793     0FEC  05B6               	andwf	___flmul@prod+2,f
  4794     0FED  3000               	movlw	0
  4795     0FEE  05B7               	andwf	___flmul@prod+3,f
  4796     0FEF  1833               	btfsc	___flmul@bexp,0
  4797     0FF0  17B6               	bsf	___flmul@prod+2,7
  4798     0FF1  3633               	lsrf	___flmul@bexp,w
  4799     0FF2  00B7               	movwf	___flmul@prod+3
  4800     0FF3                     l664:
  4801     0FF3  082D               	movf	___flmul@sign,w
  4802     0FF4  00A8               	movwf	??___flmul
  4803     0FF5  0828               	movf	??___flmul,w
  4804     0FF6  04B7               	iorwf	___flmul@prod+3,f
  4805     0FF7  0837               	movf	___flmul@prod+3,w
  4806     0FF8  00A3               	movwf	?___flmul+3
  4807     0FF9  0836               	movf	___flmul@prod+2,w
  4808     0FFA  00A2               	movwf	?___flmul+2
  4809     0FFB  0835               	movf	___flmul@prod+1,w
  4810     0FFC  00A1               	movwf	?___flmul+1
  4811     0FFD  0834               	movf	___flmul@prod,w
  4812     0FFE  00A0               	movwf	?___flmul
  4813     0FFF  0008               	return
  4814     1000                     __end_of___flmul:
  4815                           
  4816                           	psect	text9
  4817     0A87                     __ptext9:	
  4818 ;; *************** function __Umul8_16 *****************
  4819 ;; Defined at:
  4820 ;;		line 4 in file "/Applications/microchip/xc8/v2.45/pic/sources/c99/common/Umul8_16.c"
  4821 ;; Parameters:    Size  Location     Type
  4822 ;;  multiplier      1    wreg     unsigned char 
  4823 ;;  multiplicand    1    0[COMMON] unsigned char 
  4824 ;; Auto vars:     Size  Location     Type
  4825 ;;  multiplier      1    8[COMMON] unsigned char 
  4826 ;;  word_mpld       2    6[COMMON] unsigned short 
  4827 ;;  product         2    4[COMMON] unsigned short 
  4828 ;; Return value:  Size  Location     Type
  4829 ;;                  2    0[COMMON] unsigned int 
  4830 ;; Registers used:
  4831 ;;		wreg, status,2, status,0
  4832 ;; Tracked objects:
  4833 ;;		On entry : 0/0
  4834 ;;		On exit  : 0/0
  4835 ;;		Unchanged: 0/0
  4836 ;; Data sizes:     COMMON   BANK0   BANK1   BANK2
  4837 ;;      Params:         2       0       0       0
  4838 ;;      Locals:         5       0       0       0
  4839 ;;      Temps:          2       0       0       0
  4840 ;;      Totals:         9       0       0       0
  4841 ;;Total ram usage:        9 bytes
  4842 ;; Hardware stack levels used: 1
  4843 ;; This function calls:
  4844 ;;		Nothing
  4845 ;; This function is called by:
  4846 ;;		___flmul
  4847 ;; This function uses a non-reentrant model
  4848 ;;
  4849                           
  4850     0A87                     __Umul8_16:	
  4851                           ;psect for function __Umul8_16
  4852                           
  4853                           
  4854                           ;incstack = 0
  4855                           ; Regs used in __Umul8_16: [wreg+status,2+status,0]
  4856                           ;__Umul8_16@multiplier stored from wreg
  4857     0A87  00F8               	movwf	__Umul8_16@multiplier
  4858     0A88  01F4               	clrf	__Umul8_16@product
  4859     0A89  01F5               	clrf	__Umul8_16@product+1
  4860     0A8A  0870               	movf	__Umul8_16@multiplicand,w
  4861     0A8B  00F2               	movwf	??__Umul8_16
  4862     0A8C  01F3               	clrf	??__Umul8_16+1
  4863     0A8D  0872               	movf	??__Umul8_16,w
  4864     0A8E  00F6               	movwf	__Umul8_16@word_mpld
  4865     0A8F  0873               	movf	??__Umul8_16+1,w
  4866     0A90  00F7               	movwf	__Umul8_16@word_mpld+1
  4867     0A91                     l1699:
  4868     0A91  1C78               	btfss	__Umul8_16@multiplier,0
  4869     0A92  2A97               	goto	l671
  4870     0A93  0876               	movf	__Umul8_16@word_mpld,w
  4871     0A94  07F4               	addwf	__Umul8_16@product,f
  4872     0A95  0877               	movf	__Umul8_16@word_mpld+1,w
  4873     0A96  3DF5               	addwfc	__Umul8_16@product+1,f
  4874     0A97                     l671:
  4875     0A97  3001               	movlw	1
  4876     0A98                     u1855:
  4877     0A98  35F6               	lslf	__Umul8_16@word_mpld,f
  4878     0A99  0DF7               	rlf	__Umul8_16@word_mpld+1,f
  4879     0A9A  0B89               	decfsz	9,f
  4880     0A9B  2A98               	goto	u1855
  4881     0A9C  1003               	clrc
  4882     0A9D  0CF8               	rrf	__Umul8_16@multiplier,f
  4883     0A9E  0878               	movf	__Umul8_16@multiplier,w
  4884     0A9F  1D03               	btfss	3,2
  4885     0AA0  2A91               	goto	l1699
  4886     0AA1  0875               	movf	__Umul8_16@product+1,w
  4887     0AA2  00F1               	movwf	?__Umul8_16+1
  4888     0AA3  0874               	movf	__Umul8_16@product,w
  4889     0AA4  00F0               	movwf	?__Umul8_16
  4890     0AA5  0008               	return
  4891     0AA6                     __end_of__Umul8_16:
  4892                           
  4893                           	psect	text10
  4894     0C80                     __ptext10:	
  4895 ;; *************** function ___fldiv *****************
  4896 ;; Defined at:
  4897 ;;		line 8 in file "/Applications/microchip/xc8/v2.45/pic/sources/c99/common/sprcdiv.c"
  4898 ;; Parameters:    Size  Location     Type
  4899 ;;  a               4   46[BANK0 ] unsigned int 
  4900 ;;  b               4   50[BANK0 ] unsigned int 
  4901 ;; Auto vars:     Size  Location     Type
  4902 ;;  grs             4   66[BANK0 ] unsigned long 
  4903 ;;  rem             4   59[BANK0 ] unsigned long 
  4904 ;;  new_exp         2   64[BANK0 ] short 
  4905 ;;  aexp            1   71[BANK0 ] unsigned char 
  4906 ;;  bexp            1   70[BANK0 ] unsigned char 
  4907 ;;  sign            1   63[BANK0 ] unsigned char 
  4908 ;; Return value:  Size  Location     Type
  4909 ;;                  4   46[BANK0 ] unsigned char 
  4910 ;; Registers used:
  4911 ;;		wreg, status,2, status,0
  4912 ;; Tracked objects:
  4913 ;;		On entry : 0/0
  4914 ;;		On exit  : 0/0
  4915 ;;		Unchanged: 0/0
  4916 ;; Data sizes:     COMMON   BANK0   BANK1   BANK2
  4917 ;;      Params:         0       8       0       0
  4918 ;;      Locals:         0      13       0       0
  4919 ;;      Temps:          0       5       0       0
  4920 ;;      Totals:         0      26       0       0
  4921 ;;Total ram usage:       26 bytes
  4922 ;; Hardware stack levels used: 1
  4923 ;; This function calls:
  4924 ;;		Nothing
  4925 ;; This function is called by:
  4926 ;;		_log10f
  4927 ;; This function uses a non-reentrant model
  4928 ;;
  4929                           
  4930     0C80                     ___fldiv:	
  4931                           ;psect for function ___fldiv
  4932                           
  4933                           
  4934                           ;incstack = 0
  4935                           ; Regs used in ___fldiv: [wreg+status,2+status,0]
  4936     0C80  0020               	movlb	0	; select bank0
  4937     0C81  0855               	movf	___fldiv@b+3,w
  4938     0C82  3980               	andlw	128
  4939     0C83  00DF               	movwf	___fldiv@sign
  4940     0C84  3555               	lslf	___fldiv@b+3,w
  4941     0C85  00E6               	movwf	___fldiv@bexp
  4942     0C86  1BD4               	btfsc	___fldiv@b+2,7
  4943     0C87  1466               	bsf	___fldiv@bexp,0
  4944     0C88  0866               	movf	___fldiv@bexp,w
  4945     0C89  1903               	btfsc	3,2
  4946     0C8A  2C99               	goto	l1733
  4947     0C8B  0A66               	incf	___fldiv@bexp,w
  4948     0C8C  1D03               	btfss	3,2
  4949     0C8D  2C96               	goto	l1729
  4950     0C8E  3000               	movlw	0
  4951     0C8F  00D5               	movwf	___fldiv@b+3
  4952     0C90  3000               	movlw	0
  4953     0C91  00D4               	movwf	___fldiv@b+2
  4954     0C92  3000               	movlw	0
  4955     0C93  00D3               	movwf	___fldiv@b+1
  4956     0C94  3000               	movlw	0
  4957     0C95  00D2               	movwf	___fldiv@b
  4958     0C96                     l1729:
  4959     0C96  17D4               	bsf	___fldiv@b+2,7
  4960     0C97  01D5               	clrf	___fldiv@b+3
  4961     0C98  2CA1               	goto	l1735
  4962     0C99                     l1733:
  4963     0C99  3000               	movlw	0
  4964     0C9A  00D5               	movwf	___fldiv@b+3
  4965     0C9B  3000               	movlw	0
  4966     0C9C  00D4               	movwf	___fldiv@b+2
  4967     0C9D  3000               	movlw	0
  4968     0C9E  00D3               	movwf	___fldiv@b+1
  4969     0C9F  3000               	movlw	0
  4970     0CA0  00D2               	movwf	___fldiv@b
  4971     0CA1                     l1735:
  4972     0CA1  0851               	movf	___fldiv@a+3,w
  4973     0CA2  3980               	andlw	128
  4974     0CA3  00D6               	movwf	??___fldiv
  4975     0CA4  0856               	movf	??___fldiv,w
  4976     0CA5  06DF               	xorwf	___fldiv@sign,f
  4977     0CA6  3551               	lslf	___fldiv@a+3,w
  4978     0CA7  00E7               	movwf	___fldiv@aexp
  4979     0CA8  1BD0               	btfsc	___fldiv@a+2,7
  4980     0CA9  1467               	bsf	___fldiv@aexp,0
  4981     0CAA  0867               	movf	___fldiv@aexp,w
  4982     0CAB  1903               	btfsc	3,2
  4983     0CAC  2CBB               	goto	l1753
  4984     0CAD  0A67               	incf	___fldiv@aexp,w
  4985     0CAE  1D03               	btfss	3,2
  4986     0CAF  2CB8               	goto	l1749
  4987     0CB0  3000               	movlw	0
  4988     0CB1  00D1               	movwf	___fldiv@a+3
  4989     0CB2  3000               	movlw	0
  4990     0CB3  00D0               	movwf	___fldiv@a+2
  4991     0CB4  3000               	movlw	0
  4992     0CB5  00CF               	movwf	___fldiv@a+1
  4993     0CB6  3000               	movlw	0
  4994     0CB7  00CE               	movwf	___fldiv@a
  4995     0CB8                     l1749:
  4996     0CB8  17D0               	bsf	___fldiv@a+2,7
  4997     0CB9  01D1               	clrf	___fldiv@a+3
  4998     0CBA  2CC3               	goto	l612
  4999     0CBB                     l1753:
  5000     0CBB  3000               	movlw	0
  5001     0CBC  00D1               	movwf	___fldiv@a+3
  5002     0CBD  3000               	movlw	0
  5003     0CBE  00D0               	movwf	___fldiv@a+2
  5004     0CBF  3000               	movlw	0
  5005     0CC0  00CF               	movwf	___fldiv@a+1
  5006     0CC1  3000               	movlw	0
  5007     0CC2  00CE               	movwf	___fldiv@a
  5008     0CC3                     l612:
  5009     0CC3  0851               	movf	___fldiv@a+3,w
  5010     0CC4  0450               	iorwf	___fldiv@a+2,w
  5011     0CC5  044F               	iorwf	___fldiv@a+1,w
  5012     0CC6  044E               	iorwf	___fldiv@a,w
  5013     0CC7  1D03               	skipz
  5014     0CC8  2CE2               	goto	l1763
  5015     0CC9  3000               	movlw	0
  5016     0CCA  00D5               	movwf	___fldiv@b+3
  5017     0CCB  3000               	movlw	0
  5018     0CCC  00D4               	movwf	___fldiv@b+2
  5019     0CCD  3000               	movlw	0
  5020     0CCE  00D3               	movwf	___fldiv@b+1
  5021     0CCF  3000               	movlw	0
  5022     0CD0  00D2               	movwf	___fldiv@b
  5023     0CD1  3080               	movlw	128
  5024     0CD2  04D4               	iorwf	___fldiv@b+2,f
  5025     0CD3  307F               	movlw	127
  5026     0CD4  04D5               	iorwf	___fldiv@b+3,f
  5027     0CD5                     L2:
  5028     0CD5  085F               	movf	___fldiv@sign,w
  5029     0CD6  00D6               	movwf	??___fldiv
  5030     0CD7  0856               	movf	??___fldiv,w
  5031     0CD8  04D5               	iorwf	___fldiv@b+3,f
  5032     0CD9  0855               	movf	___fldiv@b+3,w
  5033     0CDA  00D1               	movwf	?___fldiv+3
  5034     0CDB  0854               	movf	___fldiv@b+2,w
  5035     0CDC  00D0               	movwf	?___fldiv+2
  5036     0CDD  0853               	movf	___fldiv@b+1,w
  5037     0CDE  00CF               	movwf	?___fldiv+1
  5038     0CDF  0852               	movf	___fldiv@b,w
  5039     0CE0  00CE               	movwf	?___fldiv
  5040     0CE1  0008               	return
  5041     0CE2                     l1763:
  5042     0CE2  0866               	movf	___fldiv@bexp,w
  5043     0CE3  1D03               	btfss	3,2
  5044     0CE4  2CEE               	goto	l1769
  5045     0CE5  3000               	movlw	0
  5046     0CE6  00D1               	movwf	?___fldiv+3
  5047     0CE7  3000               	movlw	0
  5048     0CE8  00D0               	movwf	?___fldiv+2
  5049     0CE9  3000               	movlw	0
  5050     0CEA  00CF               	movwf	?___fldiv+1
  5051     0CEB  3000               	movlw	0
  5052     0CEC  00CE               	movwf	?___fldiv
  5053     0CED  0008               	return
  5054     0CEE                     l1769:
  5055     0CEE  0866               	movf	___fldiv@bexp,w
  5056     0CEF  00D6               	movwf	??___fldiv
  5057     0CF0  01D7               	clrf	??___fldiv+1
  5058     0CF1  0857               	movf	??___fldiv+1,w
  5059     0CF2  00D9               	movwf	??___fldiv+3
  5060     0CF3  0867               	movf	___fldiv@aexp,w
  5061     0CF4  0256               	subwf	??___fldiv,w
  5062     0CF5  00D8               	movwf	??___fldiv+2
  5063     0CF6  1C03               	skipc
  5064     0CF7  03D9               	decf	??___fldiv+3,f
  5065     0CF8  0858               	movf	??___fldiv+2,w
  5066     0CF9  3E7F               	addlw	127
  5067     0CFA  00E0               	movwf	___fldiv@new_exp
  5068     0CFB  3000               	movlw	0
  5069     0CFC  3D59               	addwfc	??___fldiv+3,w
  5070     0CFD  00E1               	movwf	___fldiv@new_exp+1
  5071     0CFE  0855               	movf	___fldiv@b+3,w
  5072     0CFF  00DE               	movwf	___fldiv@rem+3
  5073     0D00  0854               	movf	___fldiv@b+2,w
  5074     0D01  00DD               	movwf	___fldiv@rem+2
  5075     0D02  0853               	movf	___fldiv@b+1,w
  5076     0D03  00DC               	movwf	___fldiv@rem+1
  5077     0D04  0852               	movf	___fldiv@b,w
  5078     0D05  00DB               	movwf	___fldiv@rem
  5079     0D06  3000               	movlw	0
  5080     0D07  00D5               	movwf	___fldiv@b+3
  5081     0D08  3000               	movlw	0
  5082     0D09  00D4               	movwf	___fldiv@b+2
  5083     0D0A  3000               	movlw	0
  5084     0D0B  00D3               	movwf	___fldiv@b+1
  5085     0D0C  3000               	movlw	0
  5086     0D0D  00D2               	movwf	___fldiv@b
  5087     0D0E  3000               	movlw	0
  5088     0D0F  00E5               	movwf	___fldiv@grs+3
  5089     0D10  3000               	movlw	0
  5090     0D11  00E4               	movwf	___fldiv@grs+2
  5091     0D12  3000               	movlw	0
  5092     0D13  00E3               	movwf	___fldiv@grs+1
  5093     0D14  3000               	movlw	0
  5094     0D15  00E2               	movwf	___fldiv@grs
  5095     0D16  01E7               	clrf	___fldiv@aexp
  5096     0D17                     l1797:
  5097     0D17  301A               	movlw	26
  5098     0D18  0267               	subwf	___fldiv@aexp,w
  5099     0D19  1803               	btfsc	3,0
  5100     0D1A  2D53               	goto	l1799
  5101     0D1B  0867               	movf	___fldiv@aexp,w
  5102     0D1C  1903               	btfsc	3,2
  5103     0D1D  2D35               	goto	l1789
  5104     0D1E  3001               	movlw	1
  5105     0D1F                     u1965:
  5106     0D1F  35DB               	lslf	___fldiv@rem,f
  5107     0D20  0DDC               	rlf	___fldiv@rem+1,f
  5108     0D21  0DDD               	rlf	___fldiv@rem+2,f
  5109     0D22  0DDE               	rlf	___fldiv@rem+3,f
  5110     0D23  0B89               	decfsz	9,f
  5111     0D24  2D1F               	goto	u1965
  5112     0D25  3001               	movlw	1
  5113     0D26                     u1975:
  5114     0D26  35D2               	lslf	___fldiv@b,f
  5115     0D27  0DD3               	rlf	___fldiv@b+1,f
  5116     0D28  0DD4               	rlf	___fldiv@b+2,f
  5117     0D29  0DD5               	rlf	___fldiv@b+3,f
  5118     0D2A  0B89               	decfsz	9,f
  5119     0D2B  2D26               	goto	u1975
  5120     0D2C  1BE5               	btfsc	___fldiv@grs+3,7
  5121     0D2D  1452               	bsf	___fldiv@b,0
  5122     0D2E  3001               	movlw	1
  5123     0D2F                     u1995:
  5124     0D2F  35E2               	lslf	___fldiv@grs,f
  5125     0D30  0DE3               	rlf	___fldiv@grs+1,f
  5126     0D31  0DE4               	rlf	___fldiv@grs+2,f
  5127     0D32  0DE5               	rlf	___fldiv@grs+3,f
  5128     0D33  0B89               	decfsz	9,f
  5129     0D34  2D2F               	goto	u1995
  5130     0D35                     l1789:
  5131     0D35  0851               	movf	___fldiv@a+3,w
  5132     0D36  025E               	subwf	___fldiv@rem+3,w
  5133     0D37  1D03               	skipz
  5134     0D38  2D43               	goto	u2005
  5135     0D39  0850               	movf	___fldiv@a+2,w
  5136     0D3A  025D               	subwf	___fldiv@rem+2,w
  5137     0D3B  1D03               	skipz
  5138     0D3C  2D43               	goto	u2005
  5139     0D3D  084F               	movf	___fldiv@a+1,w
  5140     0D3E  025C               	subwf	___fldiv@rem+1,w
  5141     0D3F  1D03               	skipz
  5142     0D40  2D43               	goto	u2005
  5143     0D41  084E               	movf	___fldiv@a,w
  5144     0D42  025B               	subwf	___fldiv@rem,w
  5145     0D43                     u2005:
  5146     0D43  1C03               	skipc
  5147     0D44  2D4E               	goto	l1795
  5148     0D45  1765               	bsf	___fldiv@grs+3,6
  5149     0D46  084E               	movf	___fldiv@a,w
  5150     0D47  02DB               	subwf	___fldiv@rem,f
  5151     0D48  084F               	movf	___fldiv@a+1,w
  5152     0D49  3BDC               	subwfb	___fldiv@rem+1,f
  5153     0D4A  0850               	movf	___fldiv@a+2,w
  5154     0D4B  3BDD               	subwfb	___fldiv@rem+2,f
  5155     0D4C  0851               	movf	___fldiv@a+3,w
  5156     0D4D  3BDE               	subwfb	___fldiv@rem+3,f
  5157     0D4E                     l1795:
  5158     0D4E  3001               	movlw	1
  5159     0D4F  00D6               	movwf	??___fldiv
  5160     0D50  0856               	movf	??___fldiv,w
  5161     0D51  07E7               	addwf	___fldiv@aexp,f
  5162     0D52  2D17               	goto	l1797
  5163     0D53                     l1799:
  5164     0D53  085E               	movf	___fldiv@rem+3,w
  5165     0D54  045D               	iorwf	___fldiv@rem+2,w
  5166     0D55  045C               	iorwf	___fldiv@rem+1,w
  5167     0D56  045B               	iorwf	___fldiv@rem,w
  5168     0D57  1D03               	btfss	3,2
  5169     0D58  1462               	bsf	___fldiv@grs,0
  5170     0D59                     l1813:
  5171     0D59  1BD4               	btfsc	___fldiv@b+2,7
  5172     0D5A  2D70               	goto	l1815
  5173     0D5B  3001               	movlw	1
  5174     0D5C                     u2035:
  5175     0D5C  35D2               	lslf	___fldiv@b,f
  5176     0D5D  0DD3               	rlf	___fldiv@b+1,f
  5177     0D5E  0DD4               	rlf	___fldiv@b+2,f
  5178     0D5F  0DD5               	rlf	___fldiv@b+3,f
  5179     0D60  0B89               	decfsz	9,f
  5180     0D61  2D5C               	goto	u2035
  5181     0D62  1BE5               	btfsc	___fldiv@grs+3,7
  5182     0D63  1452               	bsf	___fldiv@b,0
  5183     0D64  3001               	movlw	1
  5184     0D65                     u2055:
  5185     0D65  35E2               	lslf	___fldiv@grs,f
  5186     0D66  0DE3               	rlf	___fldiv@grs+1,f
  5187     0D67  0DE4               	rlf	___fldiv@grs+2,f
  5188     0D68  0DE5               	rlf	___fldiv@grs+3,f
  5189     0D69  0B89               	decfsz	9,f
  5190     0D6A  2D65               	goto	u2055
  5191     0D6B  30FF               	movlw	255
  5192     0D6C  07E0               	addwf	___fldiv@new_exp,f
  5193     0D6D  30FF               	movlw	255
  5194     0D6E  3DE1               	addwfc	___fldiv@new_exp+1,f
  5195     0D6F  2D59               	goto	l1813
  5196     0D70                     l1815:
  5197     0D70  01E7               	clrf	___fldiv@aexp
  5198     0D71  1FE5               	btfss	___fldiv@grs+3,7
  5199     0D72  2D89               	goto	l1825
  5200     0D73  30FF               	movlw	255
  5201     0D74  0562               	andwf	___fldiv@grs,w
  5202     0D75  00D6               	movwf	??___fldiv
  5203     0D76  30FF               	movlw	255
  5204     0D77  0563               	andwf	___fldiv@grs+1,w
  5205     0D78  00D7               	movwf	??___fldiv+1
  5206     0D79  30FF               	movlw	255
  5207     0D7A  0564               	andwf	___fldiv@grs+2,w
  5208     0D7B  00D8               	movwf	??___fldiv+2
  5209     0D7C  307F               	movlw	127
  5210     0D7D  0565               	andwf	___fldiv@grs+3,w
  5211     0D7E  00D9               	movwf	??___fldiv+3
  5212     0D7F  0859               	movf	??___fldiv+3,w
  5213     0D80  0458               	iorwf	??___fldiv+2,w
  5214     0D81  0457               	iorwf	??___fldiv+1,w
  5215     0D82  0456               	iorwf	??___fldiv,w
  5216     0D83  1903               	skipnz
  5217     0D84  1852               	btfsc	___fldiv@b,0
  5218     0D85  2D87               	goto	l1821
  5219     0D86  2D89               	goto	l1825
  5220     0D87                     l1821:
  5221     0D87  01E7               	clrf	___fldiv@aexp
  5222     0D88  0AE7               	incf	___fldiv@aexp,f
  5223     0D89                     l1825:
  5224     0D89  0867               	movf	___fldiv@aexp,w
  5225     0D8A  1903               	btfsc	3,2
  5226     0D8B  2DB2               	goto	l1835
  5227     0D8C  3001               	movlw	1
  5228     0D8D  07D2               	addwf	___fldiv@b,f
  5229     0D8E  3000               	movlw	0
  5230     0D8F  3DD3               	addwfc	___fldiv@b+1,f
  5231     0D90  3000               	movlw	0
  5232     0D91  3DD4               	addwfc	___fldiv@b+2,f
  5233     0D92  3000               	movlw	0
  5234     0D93  3DD5               	addwfc	___fldiv@b+3,f
  5235     0D94  1C55               	btfss	___fldiv@b+3,0
  5236     0D95  2DB2               	goto	l1835
  5237     0D96  0852               	movf	___fldiv@b,w
  5238     0D97  00D6               	movwf	??___fldiv
  5239     0D98  0853               	movf	___fldiv@b+1,w
  5240     0D99  00D7               	movwf	??___fldiv+1
  5241     0D9A  0854               	movf	___fldiv@b+2,w
  5242     0D9B  00D8               	movwf	??___fldiv+2
  5243     0D9C  0855               	movf	___fldiv@b+3,w
  5244     0D9D  00D9               	movwf	??___fldiv+3
  5245     0D9E  3001               	movlw	1
  5246     0D9F  00DA               	movwf	??___fldiv+4
  5247     0DA0                     u2125:
  5248     0DA0  37D9               	asrf	??___fldiv+3,f
  5249     0DA1  0CD8               	rrf	??___fldiv+2,f
  5250     0DA2  0CD7               	rrf	??___fldiv+1,f
  5251     0DA3  0CD6               	rrf	??___fldiv,f
  5252     0DA4  0BDA               	decfsz	??___fldiv+4,f
  5253     0DA5  2DA0               	goto	u2125
  5254     0DA6  0859               	movf	??___fldiv+3,w
  5255     0DA7  00D5               	movwf	___fldiv@b+3
  5256     0DA8  0858               	movf	??___fldiv+2,w
  5257     0DA9  00D4               	movwf	___fldiv@b+2
  5258     0DAA  0857               	movf	??___fldiv+1,w
  5259     0DAB  00D3               	movwf	___fldiv@b+1
  5260     0DAC  0856               	movf	??___fldiv,w
  5261     0DAD  00D2               	movwf	___fldiv@b
  5262     0DAE  3001               	movlw	1
  5263     0DAF  07E0               	addwf	___fldiv@new_exp,f
  5264     0DB0  3000               	movlw	0
  5265     0DB1  3DE1               	addwfc	___fldiv@new_exp+1,f
  5266     0DB2                     l1835:
  5267     0DB2  0861               	movf	___fldiv@new_exp+1,w
  5268     0DB3  3A80               	xorlw	128
  5269     0DB4  00D6               	movwf	??___fldiv
  5270     0DB5  3080               	movlw	128
  5271     0DB6  0256               	subwf	??___fldiv,w
  5272     0DB7  1D03               	skipz
  5273     0DB8  2DBB               	goto	u2135
  5274     0DB9  30FF               	movlw	255
  5275     0DBA  0260               	subwf	___fldiv@new_exp,w
  5276     0DBB                     u2135:
  5277     0DBB  1C03               	skipc
  5278     0DBC  2DCA               	goto	l633
  5279     0DBD  30FF               	movlw	255
  5280     0DBE  0020               	movlb	0	; select bank0
  5281     0DBF  00E0               	movwf	___fldiv@new_exp
  5282     0DC0  3000               	movlw	0
  5283     0DC1  00E1               	movwf	___fldiv@new_exp+1
  5284     0DC2  3000               	movlw	0
  5285     0DC3  00D5               	movwf	___fldiv@b+3
  5286     0DC4  3000               	movlw	0
  5287     0DC5  00D4               	movwf	___fldiv@b+2
  5288     0DC6  3000               	movlw	0
  5289     0DC7  00D3               	movwf	___fldiv@b+1
  5290     0DC8  3000               	movlw	0
  5291     0DC9  00D2               	movwf	___fldiv@b
  5292     0DCA                     l633:
  5293     0DCA  0020               	movlb	0	; select bank0
  5294     0DCB  0861               	movf	___fldiv@new_exp+1,w
  5295     0DCC  3A80               	xorlw	128
  5296     0DCD  00D6               	movwf	??___fldiv
  5297     0DCE  3080               	movlw	128
  5298     0DCF  0256               	subwf	??___fldiv,w
  5299     0DD0  1D03               	skipz
  5300     0DD1  2DD4               	goto	u2145
  5301     0DD2  3001               	movlw	1
  5302     0DD3  0260               	subwf	___fldiv@new_exp,w
  5303     0DD4                     u2145:
  5304     0DD4  1803               	skipnc
  5305     0DD5  2DE2               	goto	l634
  5306     0DD6  0020               	movlb	0	; select bank0
  5307     0DD7  01E0               	clrf	___fldiv@new_exp
  5308     0DD8  01E1               	clrf	___fldiv@new_exp+1
  5309     0DD9  3000               	movlw	0
  5310     0DDA  00D5               	movwf	___fldiv@b+3
  5311     0DDB  3000               	movlw	0
  5312     0DDC  00D4               	movwf	___fldiv@b+2
  5313     0DDD  3000               	movlw	0
  5314     0DDE  00D3               	movwf	___fldiv@b+1
  5315     0DDF  3000               	movlw	0
  5316     0DE0  00D2               	movwf	___fldiv@b
  5317     0DE1  01DF               	clrf	___fldiv@sign
  5318     0DE2                     l634:
  5319     0DE2  0020               	movlb	0	; select bank0
  5320     0DE3  0860               	movf	___fldiv@new_exp,w
  5321     0DE4  00E6               	movwf	___fldiv@bexp
  5322     0DE5  1C66               	btfss	___fldiv@bexp,0
  5323     0DE6  2DE9               	goto	l1849
  5324     0DE7  17D4               	bsf	___fldiv@b+2,7
  5325     0DE8  2DED               	goto	l636
  5326     0DE9                     l1849:
  5327     0DE9  307F               	movlw	127
  5328     0DEA  00D6               	movwf	??___fldiv
  5329     0DEB  0856               	movf	??___fldiv,w
  5330     0DEC  05D4               	andwf	___fldiv@b+2,f
  5331     0DED                     l636:
  5332     0DED  3666               	lsrf	___fldiv@bexp,w
  5333     0DEE  00D5               	movwf	___fldiv@b+3
  5334     0DEF  2CD5               	goto	L2
  5335     0DF0                     __end_of___fldiv:
  5336                           
  5337                           	psect	text11
  5338     0AF3                     __ptext11:	
  5339 ;; *************** function ___fltol *****************
  5340 ;; Defined at:
  5341 ;;		line 43 in file "/Applications/microchip/xc8/v2.45/pic/sources/c99/common/fltol.c"
  5342 ;; Parameters:    Size  Location     Type
  5343 ;;  f1              4   76[BANK0 ] unsigned char 
  5344 ;; Auto vars:     Size  Location     Type
  5345 ;;  exp1            1   13[BANK1 ] unsigned char 
  5346 ;;  sign1           1   12[BANK1 ] unsigned char 
  5347 ;; Return value:  Size  Location     Type
  5348 ;;                  4   76[BANK0 ] long 
  5349 ;; Registers used:
  5350 ;;		wreg, status,2, status,0
  5351 ;; Tracked objects:
  5352 ;;		On entry : 0/0
  5353 ;;		On exit  : 0/0
  5354 ;;		Unchanged: 0/0
  5355 ;; Data sizes:     COMMON   BANK0   BANK1   BANK2
  5356 ;;      Params:         0       4       0       0
  5357 ;;      Locals:         0       0       2       0
  5358 ;;      Temps:          0       0       4       0
  5359 ;;      Totals:         0       4       6       0
  5360 ;;Total ram usage:       10 bytes
  5361 ;; Hardware stack levels used: 1
  5362 ;; This function calls:
  5363 ;;		Nothing
  5364 ;; This function is called by:
  5365 ;;		_CONVERT_SPEED_TO_LOG
  5366 ;; This function uses a non-reentrant model
  5367 ;;
  5368                           
  5369     0AF3                     ___fltol:	
  5370                           ;psect for function ___fltol
  5371                           
  5372                           
  5373                           ;incstack = 0
  5374                           ; Regs used in ___fltol: [wreg+status,2+status,0]
  5375     0AF3  1003               	clrc
  5376     0AF4  0020               	movlb	0	; select bank0
  5377     0AF5  0D6E               	rlf	___fltol@f1+2,w
  5378     0AF6  0D6F               	rlf	___fltol@f1+3,w
  5379     0AF7  0021               	movlb	1	; select bank1
  5380     0AF8  00AD               	movwf	___fltol@exp1^(0+128)
  5381     0AF9  082D               	movf	___fltol@exp1^(0+128),w
  5382     0AFA  1D03               	btfss	3,2
  5383     0AFB  2B06               	goto	l2149
  5384     0AFC                     l2145:
  5385     0AFC  3000               	movlw	0
  5386     0AFD  0020               	movlb	0	; select bank0
  5387     0AFE  00EF               	movwf	?___fltol+3
  5388     0AFF  3000               	movlw	0
  5389     0B00  00EE               	movwf	?___fltol+2
  5390     0B01  3000               	movlw	0
  5391     0B02  00ED               	movwf	?___fltol+1
  5392     0B03  3000               	movlw	0
  5393     0B04  00EC               	movwf	?___fltol
  5394     0B05  0008               	return
  5395     0B06                     l2149:
  5396     0B06  0020               	movlb	0	; select bank0
  5397     0B07  086C               	movf	___fltol@f1,w
  5398     0B08  0021               	movlb	1	; select bank1
  5399     0B09  00A8               	movwf	??___fltol^(0+128)
  5400     0B0A  0020               	movlb	0	; select bank0
  5401     0B0B  086D               	movf	___fltol@f1+1,w
  5402     0B0C  0021               	movlb	1	; select bank1
  5403     0B0D  00A9               	movwf	(??___fltol^(0+128)+1)
  5404     0B0E  0020               	movlb	0	; select bank0
  5405     0B0F  086E               	movf	___fltol@f1+2,w
  5406     0B10  0021               	movlb	1	; select bank1
  5407     0B11  00AA               	movwf	(??___fltol^(0+128)+2)
  5408     0B12  0020               	movlb	0	; select bank0
  5409     0B13  086F               	movf	___fltol@f1+3,w
  5410     0B14  0021               	movlb	1	; select bank1
  5411     0B15  00AB               	movwf	(??___fltol^(0+128)+3)
  5412     0B16  301F               	movlw	31
  5413     0B17                     u2665:
  5414     0B17  36AB               	lsrf	(??___fltol^(0+128)+3),f
  5415     0B18  0CAA               	rrf	(??___fltol^(0+128)+2),f
  5416     0B19  0CA9               	rrf	(??___fltol^(0+128)+1),f
  5417     0B1A  0CA8               	rrf	??___fltol^(0+128),f
  5418     0B1B  0B89               	decfsz	9,f
  5419     0B1C  2B17               	goto	u2665
  5420     0B1D  0828               	movf	??___fltol^(0+128),w
  5421     0B1E  00AC               	movwf	___fltol@sign1^(0+128)
  5422     0B1F  0020               	movlb	0	; select bank0
  5423     0B20  17EE               	bsf	___fltol@f1+2,7
  5424     0B21  30FF               	movlw	255
  5425     0B22  05EC               	andwf	___fltol@f1,f
  5426     0B23  30FF               	movlw	255
  5427     0B24  05ED               	andwf	___fltol@f1+1,f
  5428     0B25  30FF               	movlw	255
  5429     0B26  05EE               	andwf	___fltol@f1+2,f
  5430     0B27  3000               	movlw	0
  5431     0B28  05EF               	andwf	___fltol@f1+3,f
  5432     0B29  3096               	movlw	150
  5433     0B2A  0021               	movlb	1	; select bank1
  5434     0B2B  02AD               	subwf	___fltol@exp1^(0+128),f
  5435     0B2C  1FAD               	btfss	___fltol@exp1^(0+128),7
  5436     0B2D  2B43               	goto	l2167
  5437     0B2E  082D               	movf	___fltol@exp1^(0+128),w
  5438     0B2F  3A80               	xorlw	128
  5439     0B30  3E97               	addlw	151
  5440     0B31  1C03               	btfss	3,0
  5441     0B32  2AFC               	goto	l2145
  5442     0B33                     l2165:
  5443     0B33  3001               	movlw	1
  5444     0B34                     u2695:
  5445     0B34  0020               	movlb	0	; select bank0
  5446     0B35  36EF               	lsrf	___fltol@f1+3,f
  5447     0B36  0CEE               	rrf	___fltol@f1+2,f
  5448     0B37  0CED               	rrf	___fltol@f1+1,f
  5449     0B38  0CEC               	rrf	___fltol@f1,f
  5450     0B39  0B89               	decfsz	9,f
  5451     0B3A  2B34               	goto	u2695
  5452     0B3B  3001               	movlw	1
  5453     0B3C  0021               	movlb	1	; select bank1
  5454     0B3D  00A8               	movwf	??___fltol^(0+128)
  5455     0B3E  0828               	movf	??___fltol^(0+128),w
  5456     0B3F  07AD               	addwf	___fltol@exp1^(0+128),f
  5457     0B40  1903               	btfsc	3,2
  5458     0B41  2B56               	goto	l2175
  5459     0B42  2B33               	goto	l2165
  5460     0B43                     l2167:
  5461     0B43  3020               	movlw	32
  5462     0B44  022D               	subwf	___fltol@exp1^(0+128),w
  5463     0B45  1803               	btfsc	3,0
  5464     0B46  2AFC               	goto	l2145
  5465     0B47                     l456:
  5466     0B47  082D               	movf	___fltol@exp1^(0+128),w
  5467     0B48  1903               	btfsc	3,2
  5468     0B49  2B56               	goto	l2175
  5469     0B4A  3001               	movlw	1
  5470     0B4B                     u2725:
  5471     0B4B  0020               	movlb	0	; select bank0
  5472     0B4C  35EC               	lslf	___fltol@f1,f
  5473     0B4D  0DED               	rlf	___fltol@f1+1,f
  5474     0B4E  0DEE               	rlf	___fltol@f1+2,f
  5475     0B4F  0DEF               	rlf	___fltol@f1+3,f
  5476     0B50  0B89               	decfsz	9,f
  5477     0B51  2B4B               	goto	u2725
  5478     0B52  3001               	movlw	1
  5479     0B53  0021               	movlb	1	; select bank1
  5480     0B54  02AD               	subwf	___fltol@exp1^(0+128),f
  5481     0B55  2B47               	goto	l456
  5482     0B56                     l2175:
  5483     0B56  082C               	movf	___fltol@sign1^(0+128),w
  5484     0B57  1903               	btfsc	3,2
  5485     0B58  0008               	return
  5486     0B59  0020               	movlb	0	; select bank0
  5487     0B5A  09EC               	comf	___fltol@f1,f
  5488     0B5B  09ED               	comf	___fltol@f1+1,f
  5489     0B5C  09EE               	comf	___fltol@f1+2,f
  5490     0B5D  09EF               	comf	___fltol@f1+3,f
  5491     0B5E  0AEC               	incf	___fltol@f1,f
  5492     0B5F  1903               	skipnz
  5493     0B60  0AED               	incf	___fltol@f1+1,f
  5494     0B61  1903               	skipnz
  5495     0B62  0AEE               	incf	___fltol@f1+2,f
  5496     0B63  1903               	skipnz
  5497     0B64  0AEF               	incf	___fltol@f1+3,f
  5498     0B65  0008               	return
  5499     0B66                     __end_of___fltol:
  5500                           
  5501                           	psect	text12
  5502     0A5A                     __ptext12:	
  5503 ;; *************** function _CONFIG_PWM_CCP3 *****************
  5504 ;; Defined at:
  5505 ;;		line 142 in file "main.c"
  5506 ;; Parameters:    Size  Location     Type
  5507 ;;		None
  5508 ;; Auto vars:     Size  Location     Type
  5509 ;;		None
  5510 ;; Return value:  Size  Location     Type
  5511 ;;                  1    wreg      void 
  5512 ;; Registers used:
  5513 ;;		wreg, status,2
  5514 ;; Tracked objects:
  5515 ;;		On entry : 0/0
  5516 ;;		On exit  : 0/0
  5517 ;;		Unchanged: 0/0
  5518 ;; Data sizes:     COMMON   BANK0   BANK1   BANK2
  5519 ;;      Params:         0       0       0       0
  5520 ;;      Locals:         0       0       0       0
  5521 ;;      Temps:          0       0       0       0
  5522 ;;      Totals:         0       0       0       0
  5523 ;;Total ram usage:        0 bytes
  5524 ;; Hardware stack levels used: 1
  5525 ;; This function calls:
  5526 ;;		Nothing
  5527 ;; This function is called by:
  5528 ;;		_main
  5529 ;; This function uses a non-reentrant model
  5530 ;;
  5531                           
  5532     0A5A                     _CONFIG_PWM_CCP3:	
  5533                           ;psect for function _CONFIG_PWM_CCP3
  5534                           
  5535                           
  5536                           ;main.c: 143:     SRLEN = 0;
  5537                           
  5538                           ;incstack = 0
  5539                           ; Regs used in _CONFIG_PWM_CCP3: [wreg+status,2]
  5540     0A5A  0022               	movlb	2	; select bank2
  5541     0A5B  139A               	bcf	26,7	;volatile
  5542                           
  5543                           ;main.c: 144:     C1ON = 0;
  5544     0A5C  1391               	bcf	17,7	;volatile
  5545                           
  5546                           ;main.c: 146:     TRISA2 = 1;
  5547     0A5D  0021               	movlb	1	; select bank1
  5548     0A5E  150C               	bsf	12,2	;volatile
  5549                           
  5550                           ;main.c: 147:     PR2 = 0xFF;
  5551     0A5F  30FF               	movlw	255
  5552     0A60  0020               	movlb	0	; select bank0
  5553     0A61  009B               	movwf	27	;volatile
  5554                           
  5555                           ;main.c: 148:     CCP3CON = CCP3CON | 00001111;
  5556     0A62  0026               	movlb	6	; select bank6
  5557     0A63  0813               	movf	19,w	;volatile
  5558     0A64  3849               	iorlw	73
  5559     0A65  0093               	movwf	19	;volatile
  5560                           
  5561                           ;main.c: 150:     CCPTMRS0 = 0x00;
  5562     0A66  0025               	movlb	5	; select bank5
  5563     0A67  019E               	clrf	30	;volatile
  5564                           
  5565                           ;main.c: 151:     TMR2IF = 0;
  5566     0A68  0020               	movlb	0	; select bank0
  5567     0A69  1091               	bcf	17,1	;volatile
  5568                           
  5569                           ;main.c: 152:     T2CON = T2CON | 0b00000000;
  5570     0A6A  081C               	movf	28,w	;volatile
  5571     0A6B  009C               	movwf	28	;volatile
  5572     0A6C  0008               	return
  5573     0A6D                     __end_of_CONFIG_PWM_CCP3:
  5574                           
  5575                           	psect	text13
  5576     0A4E                     __ptext13:	
  5577 ;; *************** function _CONFIG_PORTS *****************
  5578 ;; Defined at:
  5579 ;;		line 76 in file "main.c"
  5580 ;; Parameters:    Size  Location     Type
  5581 ;;		None
  5582 ;; Auto vars:     Size  Location     Type
  5583 ;;		None
  5584 ;; Return value:  Size  Location     Type
  5585 ;;                  1    wreg      void 
  5586 ;; Registers used:
  5587 ;;		wreg, status,2
  5588 ;; Tracked objects:
  5589 ;;		On entry : 0/0
  5590 ;;		On exit  : 0/0
  5591 ;;		Unchanged: 0/0
  5592 ;; Data sizes:     COMMON   BANK0   BANK1   BANK2
  5593 ;;      Params:         0       0       0       0
  5594 ;;      Locals:         0       0       0       0
  5595 ;;      Temps:          0       0       0       0
  5596 ;;      Totals:         0       0       0       0
  5597 ;;Total ram usage:        0 bytes
  5598 ;; Hardware stack levels used: 1
  5599 ;; This function calls:
  5600 ;;		Nothing
  5601 ;; This function is called by:
  5602 ;;		_main
  5603 ;; This function uses a non-reentrant model
  5604 ;;
  5605                           
  5606     0A4E                     _CONFIG_PORTS:	
  5607                           ;psect for function _CONFIG_PORTS
  5608                           
  5609                           
  5610                           ;main.c: 77:     ANSELC = ANSELC | 0b111;
  5611                           
  5612                           ;incstack = 0
  5613                           ; Regs used in _CONFIG_PORTS: [wreg+status,2]
  5614     0A4E  0023               	movlb	3	; select bank3
  5615     0A4F  080E               	movf	14,w	;volatile
  5616     0A50  3807               	iorlw	7
  5617     0A51  008E               	movwf	14	;volatile
  5618                           
  5619                           ;main.c: 78:     TRISC = TRISC | 0b111;
  5620     0A52  0021               	movlb	1	; select bank1
  5621     0A53  080E               	movf	14,w	;volatile
  5622     0A54  3807               	iorlw	7
  5623     0A55  008E               	movwf	14	;volatile
  5624                           
  5625                           ;main.c: 79:     WPUC = WPUC | 0b000;
  5626     0A56  0024               	movlb	4	; select bank4
  5627     0A57  080E               	movf	14,w	;volatile
  5628     0A58  008E               	movwf	14	;volatile
  5629     0A59  0008               	return
  5630     0A5A                     __end_of_CONFIG_PORTS:
  5631                           
  5632                           	psect	text14
  5633     0A4A                     __ptext14:	
  5634 ;; *************** function _CONFIG_INT_OSC *****************
  5635 ;; Defined at:
  5636 ;;		line 72 in file "main.c"
  5637 ;; Parameters:    Size  Location     Type
  5638 ;;		None
  5639 ;; Auto vars:     Size  Location     Type
  5640 ;;		None
  5641 ;; Return value:  Size  Location     Type
  5642 ;;                  1    wreg      void 
  5643 ;; Registers used:
  5644 ;;		wreg
  5645 ;; Tracked objects:
  5646 ;;		On entry : 0/0
  5647 ;;		On exit  : 0/0
  5648 ;;		Unchanged: 0/0
  5649 ;; Data sizes:     COMMON   BANK0   BANK1   BANK2
  5650 ;;      Params:         0       0       0       0
  5651 ;;      Locals:         0       0       0       0
  5652 ;;      Temps:          0       0       0       0
  5653 ;;      Totals:         0       0       0       0
  5654 ;;Total ram usage:        0 bytes
  5655 ;; Hardware stack levels used: 1
  5656 ;; This function calls:
  5657 ;;		Nothing
  5658 ;; This function is called by:
  5659 ;;		_main
  5660 ;; This function uses a non-reentrant model
  5661 ;;
  5662                           
  5663     0A4A                     _CONFIG_INT_OSC:	
  5664                           ;psect for function _CONFIG_INT_OSC
  5665                           
  5666                           
  5667                           ;main.c: 73:     OSCCON = 0b01110000;
  5668                           
  5669                           ;incstack = 0
  5670                           ; Regs used in _CONFIG_INT_OSC: [wreg]
  5671     0A4A  3070               	movlw	112
  5672     0A4B  0021               	movlb	1	; select bank1
  5673     0A4C  0099               	movwf	25	;volatile
  5674     0A4D  0008               	return
  5675     0A4E                     __end_of_CONFIG_INT_OSC:
  5676                           
  5677                           	psect	text15
  5678     0A46                     __ptext15:	
  5679 ;; *************** function _CONFIG_ADC_PINS *****************
  5680 ;; Defined at:
  5681 ;;		line 82 in file "main.c"
  5682 ;; Parameters:    Size  Location     Type
  5683 ;;		None
  5684 ;; Auto vars:     Size  Location     Type
  5685 ;;		None
  5686 ;; Return value:  Size  Location     Type
  5687 ;;                  1    wreg      void 
  5688 ;; Registers used:
  5689 ;;		wreg
  5690 ;; Tracked objects:
  5691 ;;		On entry : 0/0
  5692 ;;		On exit  : 0/0
  5693 ;;		Unchanged: 0/0
  5694 ;; Data sizes:     COMMON   BANK0   BANK1   BANK2
  5695 ;;      Params:         0       0       0       0
  5696 ;;      Locals:         0       0       0       0
  5697 ;;      Temps:          0       0       0       0
  5698 ;;      Totals:         0       0       0       0
  5699 ;;Total ram usage:        0 bytes
  5700 ;; Hardware stack levels used: 1
  5701 ;; This function calls:
  5702 ;;		Nothing
  5703 ;; This function is called by:
  5704 ;;		_main
  5705 ;; This function uses a non-reentrant model
  5706 ;;
  5707                           
  5708     0A46                     _CONFIG_ADC_PINS:	
  5709                           ;psect for function _CONFIG_ADC_PINS
  5710                           
  5711                           
  5712                           ;main.c: 84:     ADCON1 = 0b10100000;
  5713                           
  5714                           ;incstack = 0
  5715                           ; Regs used in _CONFIG_ADC_PINS: [wreg]
  5716     0A46  30A0               	movlw	160
  5717     0A47  0021               	movlb	1	; select bank1
  5718     0A48  009E               	movwf	30	;volatile
  5719     0A49  0008               	return
  5720     0A4A                     __end_of_CONFIG_ADC_PINS:
  5721     007E                     btemp	set	126	;btemp
  5722     007E                     wtemp0	set	126
  5723                           
  5724                           	psect	config
  5725                           
  5726                           ;Config register CONFIG1 @ 0x8007
  5727                           ;	Oscillator Selection
  5728                           ;	FOSC = INTOSC, INTOSC oscillator: I/O function on CLKIN pin
  5729                           ;	Watchdog Timer Enable
  5730                           ;	WDTE = OFF, WDT disabled
  5731                           ;	Power-up Timer Enable
  5732                           ;	PWRTE = OFF, PWRT disabled
  5733                           ;	MCLR Pin Function Select
  5734                           ;	MCLRE = ON, MCLR/VPP pin function is MCLR
  5735                           ;	Flash Program Memory Code Protection
  5736                           ;	CP = OFF, Program memory code protection is disabled
  5737                           ;	Data Memory Code Protection
  5738                           ;	CPD = OFF, Data memory code protection is disabled
  5739                           ;	Brown-out Reset Enable
  5740                           ;	BOREN = OFF, Brown-out Reset disabled
  5741                           ;	Clock Out Enable
  5742                           ;	CLKOUTEN = OFF, CLKOUT function is disabled. I/O or oscillator function on the CLKOUT 
      +                          pin
  5743                           ;	Internal/External Switchover
  5744                           ;	IESO = OFF, Internal/External Switchover mode is disabled
  5745                           ;	Fail-Safe Clock Monitor Enable
  5746                           ;	FCMEN = OFF, Fail-Safe Clock Monitor is disabled
  5747     8007                     	org	32775
  5748     8007  09E4               	dw	2532
  5749                           
  5750                           ;Config register CONFIG2 @ 0x8008
  5751                           ;	Flash Memory Self-Write Protection
  5752                           ;	WRT = OFF, Write protection off
  5753                           ;	PLL Enable
  5754                           ;	PLLEN = OFF, 4x PLL disabled
  5755                           ;	Stack Overflow/Underflow Reset Enable
  5756                           ;	STVREN = ON, Stack Overflow or Underflow will cause a Reset
  5757                           ;	Brown-out Reset Voltage Selection
  5758                           ;	BORV = LO, Brown-out Reset Voltage (Vbor), low trip point selected.
  5759                           ;	In-Circuit Debugger Mode
  5760                           ;	DEBUG = ON, In-Circuit Debugger enabled, ICSPCLK and ICSPDAT are dedicated to the debu
      +                          gger
  5761                           ;	Low-Voltage Programming Enable
  5762                           ;	LVP = OFF, High-voltage on MCLR/VPP must be used for programming
  5763     8008                     	org	32776
  5764     8008  0EFF               	dw	3839

Data Sizes:
    Strings     0
    Constant    547
    Data        0
    BSS         10
    Persistent  37
    Stack       0

Auto Spaces:
    Space          Size  Autos    Used
    COMMON           14     14      14
    BANK0            80     80      80
    BANK1            80     28      41
    BANK2            80     78      80

Pointer List with Targets:

    CONVERT_SPEED_TO_LOG@linear_speed	PTR unsigned short  size(1) Largest target is 2
		 -> current_speed_linear(BANK1[2]), 

    CONVERT_SPEED_TO_LOG@log_speed	PTR unsigned short  size(1) Largest target is 2
		 -> current_speed_log(BANK1[2]), 


Critical Paths under _main in COMMON

    _DETERMINE_WAVESHAPE->_DO_ADC
    _CONVERT_SPEED_TO_LOG->___xxtofl
    _log10f->___xxtofl
    ___flmul->___xxtofl
    ___fltol->___xxtofl

Critical Paths under _main in BANK0

    _CONVERT_SPEED_TO_LOG->___fltol
    _log10f->___fldiv
    ___flsub->___fladd
    ___fladd->___flmul
    ___fldiv->___fladd
    ___fltol->_log10f

Critical Paths under _main in BANK1

    _main->_CONVERT_SPEED_TO_LOG
    _CONVERT_SPEED_TO_LOG->___fltol
    ___fltol->_log10f

Critical Paths under _main in BANK2

    _CONVERT_SPEED_TO_LOG->_log10f
    ___fltol->_log10f

Call Graph Tables:

 ---------------------------------------------------------------------------------
 (Depth) Function   	        Calls       Base Space   Used Autos Params    Refs
 ---------------------------------------------------------------------------------
 (0) _main                                                 0     0      0   22107
                    _CONFIG_ADC_PINS
                     _CONFIG_INT_OSC
                       _CONFIG_PORTS
                    _CONFIG_PWM_CCP3
               _CONVERT_SPEED_TO_LOG
                _DETERMINE_WAVESHAPE
                             _DO_ADC
 ---------------------------------------------------------------------------------
 (1) _DETERMINE_WAVESHAPE                                  2     2      0     112
                                              5 COMMON     2     2      0
                             _DO_ADC
 ---------------------------------------------------------------------------------
 (1) _DO_ADC                                               5     3      2      45
                                              0 COMMON     5     3      2
 ---------------------------------------------------------------------------------
 (1) _CONVERT_SPEED_TO_LOG                                14    13      1   21950
                                             14 BANK1     14    13      1
                            ___flmul
                            ___fltol
                           ___xxtofl
                             _log10f
 ---------------------------------------------------------------------------------
 (2) _log10f                                              90    86      4   16208
                                             72 BANK0      4     0      4
                                              0 BANK1      8     8      0
                                              0 BANK2     78    78      0
                            ___fladd
                            ___fldiv
                            ___flmul
                            ___flsub
                           ___xxtofl
 ---------------------------------------------------------------------------------
 (3) ___xxtofl                                            14    10      4     474
                                              0 COMMON    14    10      4
 ---------------------------------------------------------------------------------
 (3) ___flsub                                              8     0      8    4461
                                             46 BANK0      8     0      8
                            ___fladd
 ---------------------------------------------------------------------------------
 (4) ___fladd                                             20    12      8    3960
                                             26 BANK0     20    12      8
                            ___flmul (ARG)
 ---------------------------------------------------------------------------------
 (3) ___flmul                                             26    18      8    4697
                                              0 BANK0     26    18      8
                          __Umul8_16
                           ___xxtofl (ARG)
 ---------------------------------------------------------------------------------
 (4) __Umul8_16                                            9     7      2     799
                                              0 COMMON     9     7      2
 ---------------------------------------------------------------------------------
 (3) ___fldiv                                             26    18      8    1273
                                             46 BANK0     26    18      8
                            ___fladd (ARG)
 ---------------------------------------------------------------------------------
 (2) ___fltol                                             10     6      4     305
                                             76 BANK0      4     0      4
                                              8 BANK1      6     6      0
                            ___flmul (ARG)
                           ___xxtofl (ARG)
                             _log10f (ARG)
 ---------------------------------------------------------------------------------
 (1) _CONFIG_PWM_CCP3                                      0     0      0       0
 ---------------------------------------------------------------------------------
 (1) _CONFIG_PORTS                                         0     0      0       0
 ---------------------------------------------------------------------------------
 (1) _CONFIG_INT_OSC                                       0     0      0       0
 ---------------------------------------------------------------------------------
 (1) _CONFIG_ADC_PINS                                      0     0      0       0
 ---------------------------------------------------------------------------------
 Estimated maximum stack depth 4
 ---------------------------------------------------------------------------------

 Call Graph Graphs:

 _main (ROOT)
   _CONFIG_ADC_PINS
   _CONFIG_INT_OSC
   _CONFIG_PORTS
   _CONFIG_PWM_CCP3
   _CONVERT_SPEED_TO_LOG
     ___flmul
       __Umul8_16
       ___xxtofl (ARG)
     ___fltol
       ___flmul (ARG)
       ___xxtofl (ARG)
       _log10f (ARG)
         ___fladd
           ___flmul (ARG)
         ___fldiv
           ___fladd (ARG)
         ___flmul
         ___flsub
           ___fladd
         ___xxtofl
     ___xxtofl
     _log10f
   _DETERMINE_WAVESHAPE
     _DO_ADC
   _DO_ADC

 Address spaces:
Name               Size   Autos  Total    Cost      Usage
BIGRAM              F0      0       0       0        0.0%
EEDATA             100      0       0       0        0.0%
NULL                 0      0       0       0        0.0%
CODE                 0      0       0       0        0.0%
BITCOMMON            E      0       0       1        0.0%
BITSFR0              0      0       0       1        0.0%
SFR0                 0      0       0       1        0.0%
COMMON               E      E       E       2      100.0%
BITSFR1              0      0       0       2        0.0%
SFR1                 0      0       0       2        0.0%
BITSFR2              0      0       0       3        0.0%
SFR2                 0      0       0       3        0.0%
STACK                0      0       0       3        0.0%
BITSFR3              0      0       0       4        0.0%
SFR3                 0      0       0       4        0.0%
ABS                  0      0      D7       4        0.0%
BITBANK0            50      0       0       5        0.0%
BITSFR4              0      0       0       5        0.0%
SFR4                 0      0       0       5        0.0%
BANK0               50     50      50       6      100.0%
BITSFR5              0      0       0       6        0.0%
SFR5                 0      0       0       6        0.0%
BITBANK1            50      0       0       7        0.0%
BITSFR6              0      0       0       7        0.0%
SFR6                 0      0       0       7        0.0%
BANK1               50     1C      29       8       51.2%
BITSFR7              0      0       0       8        0.0%
SFR7                 0      0       0       8        0.0%
BITBANK2            50      0       0       9        0.0%
BITSFR8              0      0       0       9        0.0%
SFR8                 0      0       0       9        0.0%
BANK2               50     4E      50      10      100.0%
BITSFR9              0      0       0      10        0.0%
SFR9                 0      0       0      10        0.0%
BITSFR10             0      0       0      11        0.0%
SFR10                0      0       0      11        0.0%
DATA                 0      0      D7      11        0.0%
BITSFR11             0      0       0      12        0.0%
SFR11                0      0       0      12        0.0%
BITSFR12             0      0       0      13        0.0%
SFR12                0      0       0      13        0.0%
BITSFR13             0      0       0      14        0.0%
SFR13                0      0       0      14        0.0%
BITSFR14             0      0       0      15        0.0%
SFR14                0      0       0      15        0.0%
BITSFR15             0      0       0      16        0.0%
SFR15                0      0       0      16        0.0%
BITSFR16             0      0       0      17        0.0%
SFR16                0      0       0      17        0.0%
BITSFR17             0      0       0      18        0.0%
SFR17                0      0       0      18        0.0%
BITSFR18             0      0       0      19        0.0%
SFR18                0      0       0      19        0.0%
BITSFR19             0      0       0      20        0.0%
SFR19                0      0       0      20        0.0%
BITSFR20             0      0       0      21        0.0%
SFR20                0      0       0      21        0.0%
BITSFR21             0      0       0      22        0.0%
SFR21                0      0       0      22        0.0%
BITSFR22             0      0       0      23        0.0%
SFR22                0      0       0      23        0.0%
BITSFR23             0      0       0      24        0.0%
SFR23                0      0       0      24        0.0%
BITSFR24             0      0       0      25        0.0%
SFR24                0      0       0      25        0.0%
BITSFR25             0      0       0      26        0.0%
SFR25                0      0       0      26        0.0%
BITSFR26             0      0       0      27        0.0%
SFR26                0      0       0      27        0.0%
BITSFR27             0      0       0      28        0.0%
SFR27                0      0       0      28        0.0%
BITSFR28             0      0       0      29        0.0%
SFR28                0      0       0      29        0.0%
BITSFR29             0      0       0      30        0.0%
SFR29                0      0       0      30        0.0%
BITSFR30             0      0       0      31        0.0%
SFR30                0      0       0      31        0.0%
BITSFR31             0      0       0      32        0.0%
SFR31                0      0       0      32        0.0%


Microchip Technology PIC Macro Assembler V2.45 build 20230818022343 
Symbol Table                                                                                   Sat Dec 16 22:32:53 2023

                    ___fldiv@aexp 0067                      ___fldiv@bexp 0066                      ___fldiv@sign 005F  
                              l70 0A7B               __Umul8_16@word_mpld 0076                               l102 0AF2  
                             l612 0CC3                               l710 0C5C                               l702 0C3E  
                             l456 0B47                               l560 00D8                               l633 0DCA  
                             l634 0DE2                               l562 00BD                               l636 0DED  
                             l556 0069                               l709 0C52                               l590 01B8  
                             l671 0A97                               l664 0FF3                               l577 0159  
                             l737 0238                               l598 01D0                               l696 0C0A  
                             _PR2 001B                               _Lg1 0A0C                               _Lg2 0A08  
                             _Lg3 0A04                               _Lg4 0A00                               wreg 0009  
                    ___flmul@aexp 0032                      ___flmul@bexp 0033                      ___flmul@sign 002D  
                    ___flmul@temp 0038                      ___flmul@prod 0034                      ___fltol@exp1 00AD  
                            l2001 0C02                              l2011 0C1B                              l2021 0C50  
                            l2013 0C2B                              l2023 0C43                              l2007 0C19  
                            l2201 0AC0                              l2035 0C77                              l2055 01FF  
                            l2145 0AFC                              l1521 0045                              l2073 0288  
                            l2057 0202                              l2217 0B76                              l1515 003A  
                            l2067 0257                              l2165 0B33                              l2149 0B06  
                            l1613 00F6                              l1605 00E6                              l2085 02A2  
                            l2175 0B56                              l2167 0B43                              l1615 00F8  
                            l1623 0107                              l1543 0061                              l1519 003D  
                            _C1ON 088F                              l1641 016B                              l1633 0151  
                            l1539 005E                              l2195 0AB7                              l1821 0D87  
                            l1813 0D59                              l1733 0C99                              l1549 0073  
                            l2197 0ABE                              l1815 0D70                              l1735 0CA1  
                            l1663 018A                              l1655 017F                              l1825 0D89  
                            l1753 0CBB                              l1729 0C96                              l1649 0178  
                            l1657 0181                              l1835 0DB2                              l1763 0CE2  
                            l1667 018C                              l1587 00C3                              l1579 0091  
                            l1749 0CB8                              l1685 01C8                              l1589 00C5  
                            l1597 00D3                              l1951 0F5F                              l1871 0E08  
                            l1849 0DE9                              l1769 0CEE                              l1953 0F76  
                            l1873 0E10                              l1689 01CC                              l1795 0D4E  
                            l1699 0A91                              l1963 0F8F                              l1891 0E31  
                            l1789 0D35                              l1797 0D17                              l1973 0FB8  
                            l1869 0E06                              l1799 0D53                              l1983 0FE4  
                            l1959 0F8D                              l1887 0E27                              l1977 0FCD  
                            l1889 0E29                              l1899 0E3F                              _ADON 04E8  
                            u2005 0D43                              u2035 0D5C                              u2125 0DA0  
                            u1510 00B0                              u2135 0DBB                              u2055 0D65  
                            u1520 00B1                              u2145 0DD4                              u1505 00A5  
                            u2315 0F6B                              u2405 0FD7                              u2245 0EAF  
                            u2255 0EDA                              u2265 0F28                              u1633 0119  
                            u1625 00FC                              u2275 0F3F                              u1555 00C9  
                            u2285 0F4E                              u2295 0F62                              u2535 0C64  
                            u2455 0C24                              u2385 0FA6                              u2395 0FC1  
                            u1675 016C                              u2475 0C38                              u2725 0B4B  
                            u2645 02BB                              u1855 0A98                              u1775 01A3  
                            u2495 0C4A                              u2665 0B17                              u2595 0213  
                            u1965 0D1F                              u2695 0B34                              u1975 0D26  
                            u1995 0D2F                              _WPUC 020E                 _current_speed_log 00C2  
                            _main 0AC9                              _duty 00C0                              fsr0h 0005  
                            fsr1h 0007                              indf0 0000                              fsr0l 0004  
                            indf1 0001                              fsr1l 0006                              btemp 007E  
               _current_waveshape 00C6                              start 0002                   ___fldiv@new_exp 0060  
            __end_of_CONFIG_PORTS 0A5A                     ___fltol@sign1 00AC                   __end_of___fladd 01D6  
                           ?_main 0070                   __end_of___fldiv 0DF0                   __end_of___flmul 1000  
                 __end_of___flsub 0024                   __end_of___fltol 0B66                             _T2CON 001C  
                           _SRLEN 08D7                             _TRISC 008E                             _errno 016E  
CONVERT_SPEED_TO_LOG@linear_speed 00BB                             status 0003                             wtemp0 007E  
                 __initialization 07F1                      __end_of_main 0AF3                            ??_main 007E  
              __end_of_A2D_lookup 0A23                            _ADCON0 009D                            _ADCON1 009E  
                          _ADRESH 009C                            _ADRESL 009B                            _CCPR3L 0311  
                          _ANSELC 018E                            _DO_ADC 0A6D                            _OSCCON 0099  
                          _TMR2IF 0089                            _TMR2ON 00E2                            _TRISA2 0462  
                __end_of___xxtofl 0C80                    DO_ADC@modifier 0074       __end_of_DETERMINE_WAVESHAPE 0AC9  
                       ??___fladd 0042                         ??___fldiv 0056                         ??___flmul 0028  
                       ??___flsub 007E                         ??___fltol 00A8                            _log10f 01D6  
                __end_of_ivln10hi 0A20                  __end_of_ivln10lo 0A1C                 ??_CONFIG_ADC_PINS 0070  
                    ___xxtofl@arg 007A                      ___xxtofl@exp 0079                      ___xxtofl@val 0070  
         __end_of__initialization 07FD                        ___fltol@f1 006C                    _CONFIG_INT_OSC 0A4A  
                  __pcstackCOMMON 0070            _tri_table_one_quadrant 0800                 ??_CONFIG_PWM_CCP3 0070  
                   _current_depth 00C4                        __pbssBANK1 00BC                        __pbssBANK2 016E  
                         ?_DO_ADC 0070                      _CONFIG_PORTS 0A4E            __end_of_CONFIG_INT_OSC 0A4E  
                      _log10f$770 013C                        _log10f$764 015E                        _log10f$765 012C  
                      _log10f$766 014A                        _log10f$767 0130                        _log10f$768 0134  
                      _log10f$769 0138                 __end_of__Umul8_16 0AA6                        __pmaintext 0AC9  
                         ?_log10f 0068                           _CCP3CON 0313                         ?___xxtofl 0070  
         _sine_table_one_quadrant 0900                 __end_of_log10_2hi 0A18                 __end_of_log10_2lo 0A14  
                 ?_CONFIG_INT_OSC 0070              _current_speed_linear 00C7                           ___fladd 0024  
                         ___fldiv 0C80                           ___flmul 0DF0                           ___flsub 0005  
                         ___fltol 0AF3                           __ptext1 0AA6                           __ptext2 0A6D  
                         __ptext3 0B66                           __ptext4 01D6                           __ptext5 0BED  
                         __ptext6 0005                           __ptext7 0024                           __ptext8 0DF0  
                         __ptext9 0A87                        ??___xxtofl 0074                           log10f@R 0120  
                         log10f@f 0166                           log10f@k 0140                           log10f@s 0152  
                         log10f@w 015A                           log10f@x 0068                           log10f@z 0156  
            end_of_initialization 07FD                        log10f@F474 00BC                        log10f@hfsq 014E  
                 _CONFIG_ADC_PINS 0A46                       ___fladd@grs 004D                     ___xxtofl@sign 0078  
                     ___fldiv@grs 0062                       ___fldiv@rem 005B      __end_of_CONVERT_SPEED_TO_LOG 0BED  
                     ___flmul@grs 002E                    __end_of_DO_ADC 0A87                   _CONFIG_PWM_CCP3 0A5A  
                  __end_of_log10f 07F1               start_initialization 07F1                       __end_of_Lg1 0A10  
                     __end_of_Lg2 0A0C                       __end_of_Lg3 0A08                       __end_of_Lg4 0A04  
                        ??_DO_ADC 0072   __end_of_sine_table_one_quadrant 0A00           __end_of_CONFIG_ADC_PINS 0A4A  
  __end_of_tri_table_one_quadrant 0900                          ??_log10f 00A0                         __Umul8_16 0A87  
                DO_ADC@adc_result 0072                         ___fladd@a 003E                         ___fladd@b 003A  
                       ___fldiv@a 004E                         ___fldiv@b 0052                         ___flmul@a 0024  
                       ___flmul@b 0020                         ___flsub@a 004E                         ___flsub@b 0052  
                       ___latbits 0001                     __pcstackBANK0 0020                     __pcstackBANK1 00A0  
                   __pcstackBANK2 0120                  ??_CONFIG_INT_OSC 0070           __end_of_CONFIG_PWM_CCP3 0A6D  
                       __pnvBANK1 00C4                         _log10_2hi 0A14                         _log10_2lo 0A10  
                        ?___fladd 003A                          ?___fldiv 004E                          ?___flmul 0020  
                        ?___flsub 004E                          ?___fltol 006C                        ?__Umul8_16 0070  
            _CONVERT_SPEED_TO_LOG 0B66                          _CCPTMRS0 029E                        _A2D_lookup 0A20  
                        _GO_nDONE 04E9                  ?_CONFIG_ADC_PINS 0070             ?_CONVERT_SPEED_TO_LOG 00AE  
   CONVERT_SPEED_TO_LOG@log_speed 00AE               _DETERMINE_WAVESHAPE 0AA6            DETERMINE_WAVESHAPE@ADC 0075  
                ?_CONFIG_PWM_CCP3 0070                       ??__Umul8_16 0072              ?_DETERMINE_WAVESHAPE 0070  
                        ___xxtofl 0BED                          __ptext10 0C80                          __ptext11 0AF3  
                        __ptext12 0A5A                          __ptext13 0A4E                          __ptext14 0A4A  
                        __ptext15 0A46                     ?_CONFIG_PORTS 0070                          _ivln10hi 0A1C  
                        _ivln10lo 0A18                          log10f@t1 0124                          log10f@t2 0128  
                        log10f@dk 0142                          log10f@hi 0162                          log10f@lo 0146  
                        log10f@ux 016A            ??_CONVERT_SPEED_TO_LOG 00AF             ??_DETERMINE_WAVESHAPE 0075  
        _CONVERT_SPEED_TO_LOG$762 00B1          _CONVERT_SPEED_TO_LOG$763 00B5                    __pstringtext10 0A1C  
                  __pstringtext11 0A20                    ??_CONFIG_PORTS 0070          CONVERT_SPEED_TO_LOG@temp 00B9  
                   __pstringtext1 0800                     __pstringtext2 0900                     __pstringtext3 0A00  
                   __pstringtext4 0A04                     __pstringtext5 0A08                     __pstringtext6 0A0C  
                   __pstringtext7 0A10                     __pstringtext8 0A14                     __pstringtext9 0A18  
          __Umul8_16@multiplicand 0070                     ___fladd@signs 004A                      ___fladd@aexp 004B  
                    ___fladd@bexp 004C              __Umul8_16@multiplier 0078                 __Umul8_16@product 0074  
